(lp1
I-80
aI-30
aI-40
aI-170
aI-40
aI-50
aI240
aI-30
aI-40
aI-150
aI-40
aI-70
aI-80
aI-90
aI-20
aI-210
aI-20
aI-70
aI-20
aI-10
aI280
aI-30
aI-40
aI-50
aI-240
aI-170
aI-60
aI270
aI-40
aI-50
aI-40
aI-30
aI-60
aI250
aI-40
aI-130
aI280
aI-70
aI220
aI-190
aI-40
aI-30
aI-20
aI210
aI-20
aI-210
aI-40
aI-50
aI-40
aI-250
aI-40
aI-30
aI-40
aI-30
aI-40
aI-230
aI-40
aI-210
aI-40
aI-190
aI-160
aI-170
aI-40
aI-30
aI280
aI-30
aI-60
aI-50
aI260
aI-190
aI-60
aI-70
aI-40
aI-230
aI-40
aI-50
aI-60
aI-30
aI-60
aI-170
aI180
aI-50
aI-40
aI-70
aI-60
aI-210
aI-40
aI-30
aI-60
aI250
aI-40
aI-30
aI-40
aI-190
aI-40
aI-110
aI200
aI-70
aI-40
aI-230
aI-40
aI-110
aI-60
aI270
aI-40
aI-170
aI-160
aI-50
aI280
aI-210
aI-160
aI-250
aI-40
aI-30
aI-40
aI-170
aI-40
aI-110
aI-160
aI-50
aI-60
aI-110
aI-40
aI290
aI-160
aI-110
aI-40
aI-110
aI0
aI-50
aI-80
aI-190
aI-40
aI0
aI-40
aI-230
aI200
aI-70
aI240
aI-150
aI-200
aI-30
aI-20
aI190
aI-60
aI-50
aI-180
aI-50
aI-160
aI-30
aI-60
aI-90
aI260
aI-110
aI-160
aI-170
aI-80
aI-230
aI200
aI270
aI160
aI-30
aI0
aI290
aI180
aI-150
aI-200
aI-110
aI-60
aI-30
aI20
aI-190
aI-40
aI-50
aI260
aI-50
aI-40
aI-90
aI-40
aI-50
aI-40
aI120
aI180
aI-130
aI-160
aI70
aI-100
aI0
aI-210
aI-60
aI-210
aI-20
aI-30
aI-20
aI-50
aI-40
aI-110
aI-40
aI270
aI260
aI-150
aI-40
aI-30
aI160
aI-50
aI-60
aI-130
aI-60
aI-150
aI-80
aI-30
aI240
aI-30
aI-120
aI-50
aI-40
aI-110
aI-120
aI-210
aI-40
aI-110
aI-40
aI-30
aI-160
aI-150
aI-160
aI-30
aI-60
aI-150
aI-200
aI-50
aI200
aI-70
aI-40
aI-250
aI-40
aI0
aI220
aI-130
aI240
aI-50
aI-160
aI-10
aI-200
aI-30
aI180
aI-50
aI-60
aI-50
aI-80
aI-110
aI260
aI170
aI180
aI-50
aI-60
aI-50
aI-160
aI-210
aI-120
aI-50
aI-60
aI-50
aI280
aI0
aI-140
aI-30
aI200
aI-50
aI-160
aI-50
aI-60
aI190
aI-80
aI-30
aI-20
aI-130
aI200
aI-30
aI-160
aI-150
aI-60
aI0
aI200
aI-50
aI240
aI190
aI260
aI-210
aI-60
aI-150
aI-60
aI190
aI200
aI-50
aI-40
aI-50
aI280
aI170
aI-160
aI-30
aI-60
aI-30
aI-60
aI-30
aI160
aI170
aI280
aI-50
aI-40
aI-110
aI-60
aI190
aI0
aI-50
aI-60
aI0
aI-20
aI210
aI-60
aI190
aI200
aI-50
aI160
aI-50
aI200
aI-10
aI-200
aI-130
aI-60
aI-50
aI-20
aI-130
aI-40
aI-110
aI-40
aI0
aI-160
aI-30
aI200
aI-110
aI-20
aI-130
aI-60
aI-50
aI200
aI-270
aI260
aI-130
aI-40
aI-110
aI-60
aI-170
aI240
aI-70
aI-160
aI170
aI-180
aI-50
aI160
aI-110
aI160
aI-50
aI-160
aI-50
aI200
aI290
aI200
aI0
aI200
aI-250
aI-80
aI270
aI-20
aI-50
aI-160
aI-10
aI200
aI-150
aI220
aI0
aI200
aI-30
aI240
aI-30
aI-200
aI-50
aI-200
aI-250
aI260
aI210
aI-120
aI-50
aI-60
aI-70
aI-20
aI-30
aI280
aI-30
aI200
aI0
aI-40
aI210
aI-200
aI-50
aI200
aI-210
aI0
aI-30
aI240
aI190
aI-120
aI-50
aI260
aI-150
aI200
aI-110
aI240
aI-50
aI-200
aI0
aI260
aI0
aI240
aI-50
aI200
aI-170
aI-40
aI170
aI-60
aI-210
aI240
aI210
aI-120
aI-250
aI-60
aI-30
aI-200
aI-50
aI-60
aI-70
aI260
aI-50
aI160
aI-110
aI200
aI-50
aI280
aI-190
aI-40
aI230
aI-40
aI-50
aI-40
aI-170
aI240
aI-150
aI-40
aI0
aI-60
aI-170
aI280
aI-230
aI-40
aI-50
aI-160
aI-50
aI-160
aI-210
aI0
aI-150
aI-160
aI-210
aI0
aI170
aI200
aI-50
aI260
aI-50
aI-60
aI170
aI-40
aI-90
aI200
aI-110
aI-20
aI-130
aI0
aI290
aI-40
aI-50
aI260
aI-50
aI0
aI-30
aI-240
aI-170
aI280
aI-50
aI240
aI-50
aI-200
aI270
aI-60
aI-110
aI160
aI-50
aI280
aI230
aI240
aI-130
aI240
aI0
aI200
aI-50
aI-60
aI-50
aI-220
aI-90
aI-40
aI210
aI-40
aI-150
aI240
aI250
aI-20
aI0
aI260
aI-50
aI-160
aI-110
aI-20
aI170
aI-160
aI230
aI200
aI-30
aI-60
aI-30
aI-200
aI0
aI-20
aI-70
aI-160
aI-210
aI-20
aI190
aI240
aI-170
aI-240
aI-110
aI-160
aI-50
aI-40
aI250
aI0
aI190
aI-40
aI230
aI-160
aI-30
aI240
aI-210
aI260
aI-70
aI160
aI-30
aI-60
aI-210
aI-160
aI-50
aI-160
aI-30
aI-160
aI-50
aI280
aI-170
aI-60
aI230
aI-40
aI0
aI280
aI-30
aI-120
aI-50
aI160
aI-50
aI280
aI-50
aI240
aI-170
aI-40
aI-30
aI160
aI-50
aI-80
aI-110
aI-60
aI-50
aI-60
aI-50
aI-60
aI-30
aI240
aI170
aI-60
aI250
aI-160
aI0
aI-40
aI-110
aI-200
aI-110
aI-40
aI-190
aI240
aI-210
aI200
aI0
aI-40
aI-250
aI-40
aI-50
aI200
aI-150
aI0
aI0
aI-160
aI-110
aI260
aI-50
aI0
aI-110
aI200
aI-50
aI240
aI-50
aI0
aI-110
aI-40
aI170
aI-60
aI250
aI-40
aI-130
aI-40
aI-50
aI-20
aI-210
aI-40
aI-70
aI-60
aI-30
aI-40
aI-50
aI-40
aI-110
aI-20
aI-30
aI-20
aI-50
aI-120
aI-90
aI-240
aI-50
aI280
aI-110
aI-200
aI-190
aI-40
aI-50
aI260
aI-110
aI0
aI210
aI-200
aI-50
aI260
aI-50
aI-60
aI0
aI-120
aI-150
aI280
aI-190
aI-40
aI-50
aI160
aI-110
aI-160
aI-110
aI240
aI-190
aI-40
aI-110
aI240
aI-190
aI-120
aI-50
aI-60
aI-110
aI-40
aI0
aI0
aI-170
aI-40
aI-70
aI-80
aI-110
aI-40
aI-70
aI-60
aI-130
aI-160
aI-130
aI160
aI-50
aI-80
aI0
aI-40
aI-30
aI200
aI-70
aI280
aI-70
aI-120
aI-210
aI-20
aI-130
aI-40
aI-130
aI220
aI-30
aI-40
aI-30
aI-20
aI-190
aI-40
aI-50
aI-40
aI-110
aI-60
aI-50
aI0
aI-50
aI-60
aI-110
aI0
aI-10
aI-60
aI170
aI260
aI-110
aI-40
aI-210
aI-60
aI-210
aI-60
aI-50
aI-20
aI-210
aI200
aI-50
aI-60
aI-50
aI240
aI-70
aI240
aI-50
aI260
aI-30
aI-40
aI0
aI-40
aI-50
aI200
aI-110
aI260
aI-50
aI-160
aI-50
aI240
aI210
aI-40
aI-90
aI-40
aI0
aI-40
aI-50
aI-60
aI250
aI-60
aI0
aI-60
aI-50
aI260
aI-30
aI-60
aI-50
aI-40
aI-30
aI-20
aI-70
aI280
aI-50
aI280
aI0
aI-40
aI210
aI200
aI0
aI-120
aI-30
aI-160
aI170
aI-40
aI-170
aI-120
aI-50
aI-160
aI-230
aI240
aI-30
aI-80
aI-30
aI-160
aI-50
aI-160
aI-190
aI0
aI-50
aI-160
aI-90
aI-200
aI-30
aI-120
aI0
aI160
aI-30
aI-60
aI-50
aI0
aI-190
aI200
aI-130
aI200
aI-110
aI-40
aI-230
aI-40
aI-110
aI-120
aI-150
aI-160
aI-90
aI-160
aI-130
aI-20
aI290
aI-240
aI250
aI-40
aI170
aI-160
aI0
aI-40
aI0
aI-160
aI-30
aI-80
aI-190
aI280
aI0
aI260
aI-90
aI-60
aI-230
aI-40
aI-50
aI-40
aI250
aI-40
aI-150
aI-60
aI270
aI0
aI-30
aI-200
aI170
aI-40
aI-50
aI-60
aI-150
aI-80
aI-50
aI-160
aI-130
aI-200
aI-130
aI-60
aI-50
aI-60
aI-50
aI-160
aI-50
aI0
aI-130
aI280
aI-110
aI-80
aI0
aI0
aI-190
aI-40
aI0
aI-160
aI-30
aI-40
aI0
aI-40
aI-130
aI-40
aI-90
aI-180
aI-150
aI-40
aI250
aI-60
aI-70
aI240
aI-110
aI240
aI-150
aI0
aI-90
aI-200
aI-170
aI-20
aI-50
aI-40
aI-50
aI240
aI-30
aI-40
aI-50
aI260
aI-50
aI240
aI-50
aI-60
aI-150
aI0
aI190
aI-120
aI-130
aI-40
aI-130
aI-40
aI-190
aI-200
aI230
aI-40
aI-90
aI-40
aI-50
aI0
aI0
aI-40
aI-130
aI-60
aI-150
aI-40
aI170
aI-120
aI-70
aI-120
aI-50
aI-60
aI230
aI-60
aI-150
aI-40
aI-230
aI-60
aI-30
aI0
aI-30
aI-60
aI-50
aI-40
aI-50
aI-40
aI0
aI-160
aI-50
aI-60
aI-170
aI-40
aI-50
aI-40
aI-190
aI-40
aI-70
aI260
aI-70
aI240
aI-150
aI-40
aI-170
aI-40
aI-210
aI240
aI-130
aI-40
aI-30
aI0
aI-130
aI-60
aI-210
aI-80
aI-90
aI260
aI-70
aI-180
aI-130
aI-60
aI-150
aI-40
aI0
aI-40
aI-30
aI-60
aI0
aI-40
aI-50
aI-60
aI-70
aI-60
aI-170
aI220
aI-50
aI-40
aI-170
aI-40
aI-30
aI-40
aI-150
aI-160
aI0
aI240
aI-30
aI-120
aI-30
aI240
aI-170
aI-40
aI0
aI-20
aI-170
aI-40
aI-50
aI260
aI0
aI-60
aI-170
aI-180
aI-30
aI-40
aI-130
aI0
aI-130
aI-160
aI-150
aI-40
aI-70
aI-60
aI-170
aI-20
aI-130
aI-20
aI-130
aI-40
aI-90
aI-20
aI-50
aI-40
aI0
aI-40
aI0
aI-40
aI-50
aI240
aI-150
aI-60
aI-110
aI-40
aI-130
aI-200
aI-50
aI280
aI-130
aI-200
aI270
aI-40
aI-130
aI-120
aI-30
aI-200
aI-130
aI-160
aI-170
aI-40
aI-190
aI200
aI-150
aI-40
aI-150
aI-40
aI-150
aI-60
aI-50
aI-120
aI-210
aI-200
aI0
aI-40
aI-90
aI-40
aI-20
aI-40
aI-50
aI-80
aI0
aI-160
aI0
aI-60
aI-210
aI-40
aI-50
aI-40
aI0
aI240
aI-210
aI0
aI170
aI-60
aI-90
aI-40
aI-50
aI-120
aI-150
aI-160
aI-50
aI-40
aI-50
aI-40
aI-110
aI-200
aI-130
aI-120
aI-210
aI-60
aI0
aI-40
aI270
aI-40
aI-30
aI-40
aI-210
aI-120
aI-150
aI-40
aI-90
aI-40
aI-50
aI240
aI-150
aI-240
aI-30
aI240
aI-50
aI0
aI-190
aI240
aI-150
aI200
aI-150
aI-40
aI-150
aI240
aI-30
aI-40
aI-150
aI-40
aI-50
aI-40
aI-50
aI-40
aI290
aI-40
aI-50
aI-40
aI0
aI-40
aI-30
aI-40
aI-250
aI-40
aI230
aI200
aI-210
aI240
aI-130
aI-40
aI-150
aI-40
aI-50
aI-60
aI-130
aI-60
aI-210
aI-40
aI230
aI-40
aI170
aI-40
aI230
aI-120
aI-50
aI-160
aI-50
aI-40
aI0
aI240
aI-30
aI-40
aI0
aI-60
aI170
aI-120
aI-50
aI-40
aI-70
aI-40
aI-150
aI-40
aI-250
aI240
aI-230
aI-20
aI-50
aI-40
aI-130
aI-40
aI-90
aI260
aI-30
aI200
aI-150
aI240
aI-50
aI-40
aI-170
aI-60
aI-190
aI-40
aI-30
aI-40
aI-30
aI-40
aI-150
aI-200
aI-90
aI200
aI-110
aI-60
aI-210
aI-60
aI-30
aI-40
aI-50
aI-120
aI-210
aI-40
aI-70
aI-40
aI-130
aI-40
aI0
aI200
aI-210
aI0
aI-210
aI-160
aI-90
aI-40
aI-30
aI-40
aI-130
aI0
aI-110
aI-40
aI-210
aI-40
aI0
aI-200
aI-30
aI240
aI-210
aI240
aI-50
aI-160
aI-50
aI-40
aI-10
aI-60
aI-130
aI240
aI0
aI-80
aI-30
aI-80
aI-130
aI-40
aI-210
aI-200
aI-10
aI0
aI270
aI-40
aI-150
aI-40
aI-30
aI-200
aI-130
aI-40
aI-50
aI-180
aI-130
aI0
aI0
aI240
aI-50
aI-60
aI-50
aI260
aI-130
aI-40
aI-210
aI-60
aI290
aI-40
aI270
aI-220
aI-30
aI-40
aI270
aI-120
aI-30
aI280
aI-150
aI-60
aI-210
aI200
aI-210
aI0
aI-50
aI240
aI-30
aI-40
aI-30
aI-180
aI0
aI-40
aI-50
aI240
aI-70
aI-20
aI-110
aI-180
aI-30
aI-40
aI-50
aI-40
aI-130
aI-200
aI-50
aI-40
aI-50
aI200
aI0
aI-60
aI250
aI260
aI270
aI-40
aI-50
aI260
aI-250
aI-40
aI-210
aI-220
aI-90
aI240
aI190
aI-80
aI-150
aI260
aI-30
aI-40
aI270
aI-40
aI230
aI240
aI270
aI-40
aI-30
aI-160
aI270
aI0
aI0
aI0
aI-50
aI-60
aI-70
aI-40
aI-10
aI-160
aI-150
aI-200
aI-150
aI-40
aI-70
aI240
aI230
aI-40
aI0
aI200
aI-150
aI-40
aI-150
aI0
aI-130
aI-60
aI-50
aI-60
aI-210
aI-40
aI-50
aI-40
aI-150
aI0
aI-130
aI-40
aI-130
aI240
aI-50
aI-80
aI-230
aI-200
aI230
aI-40
aI-150
aI-40
aI-30
aI240
aI-210
aI-40
aI-50
aI-60
aI-110
aI-40
aI-210
aI-40
aI-50
aI-60
aI230
aI-40
aI-90
aI-40
aI-250
aI-40
aI-150
aI-80
aI-70
aI-160
aI-50
aI-40
aI290
aI-40
aI-30
aI-40
aI-210
aI0
aI-110
aI-160
aI270
aI260
aI-50
aI-40
aI-30
aI-200
aI-270
aI-40
aI270
aI-60
aI-50
aI0
aI-90
aI240
aI-130
aI-40
aI-70
aI-160
aI-70
aI-60
aI0
aI0
aI-50
aI-160
aI-30
aI-40
aI-70
aI-40
aI-50
aI-200
aI-10
aI240
aI-30
aI-60
aI-210
aI240
aI-50
aI260
aI-250
aI-40
aI-150
aI-20
aI-30
aI-40
aI-90
aI-40
aI-150
aI-40
aI-50
aI240
aI-50
aI240
aI-210
aI240
aI-50
aI0
aI-210
aI-200
aI-150
aI-40
aI-50
aI0
aI-90
aI-40
aI-50
aI-200
aI-70
aI-60
aI-130
aI280
aI-130
aI240
aI-50
aI240
aI-210
aI260
aI250
aI-80
aI-150
aI-40
aI-190
aI0
aI0
aI-200
aI-70
aI-60
aI-90
aI-40
aI-130
aI-40
aI-90
aI-40
aI-30
aI-40
aI-210
aI-40
aI-210
aI-40
aI230
aI-40
aI-130
aI-60
aI-150
aI-40
aI190
aI-60
aI-150
aI220
aI-130
aI260
aI-50
aI-40
aI-30
aI240
aI-210
aI0
aI-30
aI-60
aI-10
aI-40
aI0
aI200
aI270
aI-60
aI-190
aI-40
aI-70
aI-40
aI-30
aI-40
aI-210
aI-40
aI230
aI-60
aI270
aI-40
aI-10
aI-40
aI-30
aI-40
aI-210
aI200
aI-110
aI-40
aI-50
aI-40
aI270
aI200
aI-250
aI-200
aI230
aI-40
aI250
aI240
aI-150
aI-40
aI-30
aI-40
aI-210
aI-160
aI-50
aI0
aI-150
aI-40
aI-30
aI-40
aI-30
aI-40
aI-50
aI-40
aI-30
aI-40
aI-90
aI-40
aI-50
aI-40
aI-30
aI200
aI-210
aI-40
aI-70
aI-40
aI-210
aI0
aI-90
aI-40
aI-130
aI-40
aI-50
aI-200
aI-30
aI-160
aI-50
aI-60
aI-150
aI-40
aI-50
aI-40
aI-30
aI0
aI-30
aI-40
aI-50
aI-40
aI-150
aI-40
aI-30
aI-60
aI-210
aI260
aI0
aI-60
aI-50
aI240
aI-70
aI-40
aI-50
aI-120
aI-90
aI-40
aI-210
aI-40
aI-50
aI-40
aI-50
aI-40
aI-210
aI-160
aI0
aI-40
aI-150
aI0
aI-210
aI-40
aI-70
aI-40
aI270
aI200
aI-70
aI-40
aI210
aI240
aI-130
aI-40
aI-90
aI-60
aI230
aI-40
aI-210
aI-60
aI-130
aI240
aI-30
aI-40
aI-90
aI-40
aI-30
aI0
aI-130
aI-40
aI-50
aI-40
aI0
aI-40
aI-130
aI-40
aI-30
aI-40
aI0
aI0
aI-70
aI-200
aI-90
aI-40
aI-30
aI-40
aI-90
aI0
aI0
aI-40
aI-70
aI-60
aI-10
aI-40
aI-50
aI-200
aI-70
aI0
aI-70
aI-40
aI0
aI-40
aI-30
aI-60
aI-150
aI-40
aI-90
aI-40
aI-90
aI-40
aI-90
aI-200
aI-130
aI-40
aI-50
aI-40
aI-130
aI-40
aI-30
aI-60
aI270
aI-200
aI-130
aI0
aI-90
aI240
aI-50
aI-40
aI-50
aI-80
aI-50
aI-60
aI-30
aI-40
aI-50
aI-40
aI-30
aI240
aI210
aI-160
aI-30
aI-40
aI-130
aI-40
aI-30
aI-40
aI-150
aI240
aI-210
aI-40
aI-70
aI-200
aI-50
aI-160
aI-130
aI-40
aI-90
aI-40
aI-30
aI-40
aI-90
aI-40
aI270
aI-40
aI230
aI0
aI-10
aI-60
aI-150
aI-40
aI-150
aI260
aI250
aI-60
aI-130
aI-40
aI0
aI260
aI-30
aI0
aI-50
aI-40
aI-90
aI-40
aI-210
aI-40
aI-50
aI-180
aI-210
aI-40
aI-90
aI0
aI-50
aI240
aI-30
aI-40
aI250
aI-40
aI270
aI-220
aI270
aI-40
aI-90
aI-160
aI-50
aI-40
aI210
aI-40
aI270
aI-40
aI-50
aI-60
aI-30
aI-80
aI-150
aI-120
aI-130
aI-60
aI-210
aI-40
aI270
aI-40
aI0
aI-40
aI-210
aI240
aI-210
aI-40
aI-90
aI-40
aI-50
aI0
aI-150
aI-40
aI-150
aI-60
aI-230
aI-200
aI-90
aI-40
aI-30
aI-40
aI270
aI200
aI-130
aI240
aI-70
aI-40
aI-110
aI-40
aI-30
aI-40
aI-250
aI-40
aI-50
aI0
aI-130
aI260
aI-30
aI-40
aI-50
aI260
aI-130
aI260
aI230
aI-40
aI290
aI-40
aI0
aI240
aI-90
aI-160
aI290
aI0
aI-150
aI200
aI-210
aI-40
aI0
aI-40
aI-50
aI-40
aI-190
aI-40
aI-70
aI-60
aI-10
aI200
aI-90
aI-60
aI-130
aI0
aI0
aI-40
aI-50
aI-40
aI-30
aI240
aI290
aI-40
aI-90
aI-60
aI-50
aI-40
aI-150
aI-60
aI-130
aI-160
aI-30
aI-40
aI270
aI-40
aI-70
aI-40
aI-50
aI-40
aI-50
aI200
aI-50
aI200
aI-50
aI-40
aI-210
aI240
aI-70
aI-160
aI-90
aI240
aI-150
aI-40
aI-50
aI0
aI-150
aI0
aI-30
aI-60
aI270
aI0
aI-30
aI-40
aI-150
aI-80
aI0
aI-40
aI-190
aI-60
aI-50
aI-40
aI0
aI-40
aI-70
aI-40
aI-50
aI0
aI270
aI-60
aI-30
aI-40
aI-30
aI-120
aI-90
aI280
aI-190
aI-40
aI-30
aI-60
aI-70
aI-180
aI0
aI-40
aI-70
aI-40
aI-210
aI-40
aI-50
aI-60
aI230
aI-40
aI-90
aI-40
aI-90
aI280
aI-90
aI-40
aI-70
aI-200
aI-150
aI0
aI0
aI-60
aI-110
aI-40
aI-190
aI280
aI270
aI260
aI-50
aI-60
aI-110
aI-220
aI290
aI240
aI-50
aI-40
aI230
aI-40
aI-50
aI240
aI-50
aI-40
aI-30
aI-40
aI-50
aI-40
aI-30
aI260
aI-70
aI-60
aI-90
aI-40
aI0
aI280
aI-150
aI-40
aI-30
aI-60
aI-50
aI-160
aI-210
aI0
aI270
aI-40
aI0
aI-120
aI270
aI-40
aI-90
aI-60
aI-50
aI-200
aI-90
aI-40
aI-30
aI-40
aI0
aI-60
aI-150
aI260
aI-50
aI-160
aI-50
aI-40
aI-50
aI-40
aI-50
aI200
aI-10
aI-40
aI-50
aI-40
aI-250
aI-40
aI230
aI-80
aI-30
aI-40
aI-50
aI240
aI-210
aI-60
aI-90
aI-40
aI-30
aI-120
aI-30
aI-120
aI270
aI-40
aI-30
aI-40
aI-30
aI0
aI-150
aI-60
aI-50
aI-40
aI-50
aI-60
aI-50
aI280
aI-30
aI-40
aI-50
aI-40
aI0
aI-40
aI-30
aI-180
aI0
aI-120
aI-150
aI-40
aI-90
aI-40
aI290
aI-40
aI-150
aI240
aI230
aI260
aI-270
aI240
aI-210
aI0
aI-50
aI-60
aI-50
aI0
aI-250
aI-60
aI-150
aI-40
aI-90
aI-60
aI-90
aI240
aI-30
aI-180
aI0
aI-40
aI-30
aI-40
aI-10
aI-200
aI-90
aI-60
aI-210
aI-40
aI-170
aI0
aI-210
aI0
aI230
aI-120
aI-30
aI160
aI-30
aI-40
aI-210
aI-40
aI-150
aI-60
aI230
aI280
aI-210
aI-60
aI-210
aI-160
aI0
aI240
aI190
aI260
aI-30
aI240
aI0
aI240
aI-30
aI-40
aI-90
aI-200
aI-150
aI200
aI230
aI0
aI-30
aI-60
aI-90
aI-160
aI-50
aI-40
aI-210
aI-40
aI-70
aI200
aI-50
aI-40
aI-50
aI-60
aI-210
aI-60
aI-10
aI-60
aI-150
aI-40
aI-50
aI160
aI-150
aI-60
aI-190
aI-40
aI-50
aI-60
aI-130
aI-40
aI270
aI-60
aI-30
aI-40
aI-30
aI200
aI-150
aI-120
aI-70
aI-40
aI-70
aI-80
aI-210
aI-200
aI-30
aI-60
aI-130
aI200
aI-150
aI200
aI-130
aI-40
aI-50
aI-40
aI-30
aI-60
aI0
aI-40
aI-30
aI-40
aI-50
aI-40
aI-150
aI-60
aI-30
aI-60
aI190
aI-40
aI-50
aI240
aI0
aI-160
aI-50
aI-40
aI0
aI260
aI-190
aI240
aI230
aI-40
aI-130
aI-40
aI-50
aI160
aI230
aI-40
aI-90
aI200
aI-110
aI240
aI-90
aI-120
aI-110
aI-40
aI230
aI-40
aI-30
aI-40
aI-50
aI-40
aI-50
aI-40
aI-150
aI-40
aI230
aI240
aI-50
aI-60
aI-210
aI-40
aI-70
aI-60
aI270
aI-40
aI-150
aI-40
aI-170
aI-40
aI-210
aI240
aI-70
aI0
aI-150
aI-40
aI270
aI240
aI-90
aI-40
aI-90
aI240
aI-210
aI-40
aI-10
aI-40
aI-50
aI-60
aI-150
aI-120
aI-50
aI260
aI-210
aI-60
aI-210
aI-40
aI-50
aI-40
aI-30
aI240
aI-210
aI-80
aI-210
aI240
aI-90
aI240
aI-30
aI-60
aI-30
aI-40
aI-170
aI-200
aI-130
aI-60
aI-30
aI0
aI-50
aI-120
aI-210
aI-60
aI-150
aI-120
aI-50
aI0
aI-150
aI0
aI-150
aI0
aI-130
aI-40
aI-30
aI-40
aI-130
aI-40
aI-30
aI-200
aI-110
aI-40
aI-210
aI-40
aI-130
aI0
aI-50
aI-80
aI0
aI-40
aI-50
aI200
aI270
aI-40
aI-70
aI-40
aI210
aI-40
aI-210
aI-60
aI-90
aI-40
aI-30
aI-60
aI250
aI-60
aI270
aI-40
aI-90
aI-120
aI-70
aI-120
aI-30
aI-40
aI-210
aI-40
aI-50
aI0
aI-170
aI-40
aI230
aI-60
aI-90
aI-60
aI-50
aI0
aI-90
aI-40
aI-50
aI-40
aI-90
aI260
aI-150
aI-40
aI-130
aI-60
aI-90
aI200
aI-190
aI-40
aI0
aI-40
aI-90
aI200
aI-90
aI-40
aI270
aI-40
aI-30
aI240
aI-70
aI-40
aI-50
aI200
aI-210
aI-120
aI-50
aI-80
aI-210
aI-40
aI190
aI-120
aI190
aI-40
aI-50
aI0
aI-90
aI-60
aI-150
aI0
aI0
aI-40
aI-90
aI-40
aI270
aI-60
aI230
aI0
aI-130
aI-60
aI-50
aI200
aI-110
aI-200
aI-30
aI200
aI-10
aI-40
aI-50
aI-40
aI-50
aI-40
aI-110
aI-80
aI290
aI200
aI-50
aI200
aI-50
aI0
aI-50
aI-60
aI-30
aI-40
aI-150
aI-120
aI-90
aI-60
aI-30
aI-40
aI190
aI240
aI-130
aI-40
aI-30
aI260
aI210
aI-40
aI-50
aI-40
aI-30
aI-60
aI-190
aI-40
aI-110
aI-40
aI-190
aI240
aI-50
aI-60
aI-50
aI240
aI-210
aI-40
aI-30
aI-40
aI-50
aI200
aI-30
aI-60
aI-70
aI-40
aI-50
aI-60
aI-170
aI0
aI-210
aI-40
aI270
aI-60
aI-50
aI-40
aI-90
aI-40
aI-50
aI-40
aI-70
aI-60
aI-50
aI260
aI0
aI-40
aI-30
aI-40
aI10
aI-80
aI-50
aI0
aI-50
aI-40
aI-90
aI0
aI-210
aI-40
aI-50
aI-40
aI-150
aI-120
aI-150
aI240
aI-150
aI-40
aI270
aI0
aI-70
aI-160
aI-130
aI-40
aI-170
aI-40
aI-50
aI-40
aI0
aI-80
aI-30
aI-40
aI-210
aI240
aI-130
aI260
aI270
aI-40
aI-90
aI220
aI-210
aI-40
aI-30
aI160
aI-130
aI-40
aI-130
aI-40
aI-150
aI0
aI210
aI-60
aI-210
aI240
aI270
aI-60
aI-150
aI-40
aI-150
aI-40
aI-50
aI0
aI270
aI200
aI-30
aI-40
aI-50
aI-60
aI-70
aI0
aI-50
aI-40
aI-50
aI-200
aI0
aI-40
aI-130
aI160
aI-90
aI-40
aI-50
aI-60
aI-30
aI-60
aI0
aI-60
aI-30
aI-160
aI270
aI-60
aI-150
aI-40
aI270
aI-180
aI-130
aI-60
aI230
aI-40
aI190
aI-40
aI290
aI-40
aI-90
aI260
aI-150
aI-180
aI-50
aI-40
aI-150
aI-40
aI270
aI-120
aI-110
aI-60
aI-130
aI-40
aI-250
aI-40
aI270
aI-60
aI-50
aI-40
aI-50
aI-40
aI-110
aI160
aI-210
aI200
aI-30
aI-40
aI-210
aI-60
aI-150
aI-200
aI0
aI-40
aI-50
aI-40
aI-150
aI160
aI290
aI-60
aI270
aI-160
aI230
aI-40
aI270
aI-40
aI-30
aI-40
aI-90
aI-40
aI-50
aI-200
aI-50
aI-160
aI-150
aI-40
aI0
aI-40
aI-210
aI-40
aI-150
aI-40
aI-50
aI-60
aI-30
aI-40
aI-130
aI-40
aI250
aI-60
aI-130
aI-120
aI-250
aI240
aI-10
aI-60
aI-50
aI-40
aI0
aI-200
aI230
aI-120
aI0
aI-60
aI-30
aI0
aI-130
aI-60
aI-10
aI-40
aI-250
aI-60
aI-50
aI-40
aI-90
aI-40
aI210
aI-160
aI-50
aI-40
aI-50
aI-40
aI-150
aI-200
aI-170
aI-40
aI-30
aI-40
aI-50
aI160
aI-210
aI-60
aI-30
aI200
aI-70
aI-40
aI-70
aI-60
aI-190
aI-200
aI270
aI-40
aI-130
aI-60
aI-30
aI-60
aI-50
aI-40
aI-190
aI-40
aI-150
aI160
aI-170
aI240
aI-130
aI-60
aI-130
aI200
aI-210
aI-160
aI290
aI-40
aI-90
aI0
aI-210
aI-40
aI-110
aI-40
aI-170
aI-60
aI-50
aI-40
aI-150
aI-40
aI0
aI-60
aI270
aI-40
aI270
aI-40
aI-130
aI-120
aI-30
aI-160
aI-50
aI-40
aI190
aI-40
aI-50
aI-40
aI-150
aI-40
aI-190
aI-60
aI-50
aI-40
aI-210
aI-40
aI-50
aI-40
aI-30
aI-60
aI-30
aI-40
aI-190
aI-40
aI-70
aI-40
aI-190
aI-40
aI-150
aI-40
aI-210
aI-60
aI-50
aI-40
aI-150
aI-40
aI-70
aI0
aI-210
aI0
aI-170
aI-40
aI-10
aI-40
aI-130
aI-40
aI-30
aI-200
aI-210
aI-40
aI-30
aI-40
aI-250
aI-40
aI230
aI-40
aI-210
aI0
aI-150
aI-40
aI-210
aI-160
aI-150
aI-40
aI-30
aI-40
aI-130
aI-40
aI-210
aI-40
aI-30
aI-40
aI-50
aI-40
aI0
aI-40
aI-50
aI-40
aI-50
aI-40
aI-30
aI-40
aI-210
aI-40
aI-130
aI-60
aI-150
aI-40
aI-50
aI-40
aI0
aI-60
aI0
aI-40
aI-30
aI-60
aI-50
aI240
aI-210
aI-40
aI270
aI-40
aI-250
aI-40
aI270
aI0
aI-170
aI-40
aI-30
aI-200
aI-50
aI260
aI-90
aI-40
aI-30
aI200
aI-150
aI-220
aI0
aI-60
aI-50
aI260
aI-190
aI0
aI-30
aI-40
aI270
aI-60
aI-50
aI-60
aI290
aI-200
aI-190
aI-40
aI-190
aI0
aI230
aI-40
aI210
aI-200
aI-210
aI-40
aI-50
aI-60
aI-50
aI-200
aI-50
aI-40
aI-50
aI-60
aI-30
aI-40
aI-30
aI-120
aI150
aI-40
aI230
aI-40
aI-210
aI-60
aI-50
aI0
aI-60
aI0
aI-40
aI-30
aI-40
aI-70
aI-60
aI0
aI260
aI270
aI-60
aI-30
aI-40
aI290
aI-40
aI-30
aI-120
aI-130
aI-160
aI0
aI200
aI-210
aI-60
aI-50
aI-60
aI-50
aI-60
aI-50
aI-200
aI-30
aI-40
aI-50
aI-60
aI290
aI200
aI270
aI-40
aI-50
aI-40
aI210
aI-180
aI-50
aI-40
aI-90
aI-40
aI-90
aI-200
aI-250
aI260
aI-90
aI-40
aI-210
aI-120
aI-130
aI160
aI-150
aI-40
aI0
aI-60
aI-30
aI-40
aI-150
aI-180
aI-30
aI-40
aI-150
aI-60
aI-90
aI-180
aI-30
aI-40
aI-90
aI-40
aI0
aI-80
aI-50
aI-40
aI-150
aI-40
aI0
aI-120
aI-210
aI-220
aI-130
aI-40
aI-210
aI240
aI-130
aI-40
aI-150
aI-60
aI-210
aI0
aI230
aI-80
aI270
aI-60
aI-150
aI-60
aI210
aI-40
aI-50
aI-40
aI210
aI-180
aI-30
aI0
aI-150
aI-40
aI-90
aI-60
aI0
aI0
aI-210
aI-120
aI-150
aI-40
aI-50
aI240
aI-270
aI-200
aI-50
aI-40
aI-130
aI-40
aI-130
aI-40
aI-10
aI-60
aI230
aI260
aI-250
aI-40
aI270
aI-40
aI-190
aI0
aI-50
aI-40
aI290
aI-80
aI230
aI-40
aI0
aI-120
aI0
aI-40
aI-130
aI-40
aI-210
aI-40
aI-50
aI-40
aI-210
aI-40
aI290
aI-160
aI-170
aI260
aI-50
aI-40
aI-130
aI-40
aI-30
aI-40
aI-30
aI-40
aI-250
aI-40
aI-30
aI-40
aI-150
aI-40
aI-210
aI-40
aI-50
aI240
aI-150
aI-160
aI-50
aI0
aI-30
aI-40
aI-70
aI0
aI-10
aI-40
aI-210
aI-60
aI-130
aI0
aI-50
aI-40
aI-70
aI-40
aI230
aI-40
aI-150
aI0
aI230
aI-60
aI270
aI-40
aI-90
aI-120
aI290
aI-40
aI-70
aI-40
aI-130
aI-60
aI-270
aI-40
aI-150
aI260
aI-30
aI-40
aI-210
aI-60
aI-130
aI-60
aI-150
aI0
aI-30
aI-60
aI-50
aI260
aI-130
aI-40
aI-130
aI-40
aI-90
aI260
aI-30
aI-60
aI-210
aI-40
aI-150
aI-40
aI-130
aI-40
aI-50
aI240
aI-70
aI-40
aI0
aI-40
aI-50
aI-160
aI-150
aI240
aI-50
aI-40
aI-190
aI-60
aI290
aI240
aI-90
aI-60
aI-30
aI260
aI270
aI0
aI-30
aI-60
aI-70
aI-60
aI-150
aI-40
aI-10
aI-120
aI-210
aI-60
aI-30
aI-200
aI-110
aI-40
aI-90
aI240
aI270
aI-60
aI-50
aI-40
aI-30
aI-60
aI0
aI0
aI-210
aI160
aI-70
aI240
aI-30
aI-60
aI-70
aI-40
aI0
aI-220
aI250
aI-60
aI-50
aI-40
aI-210
aI-40
aI-150
aI-60
aI-210
aI-40
aI-110
aI-60
aI-90
aI-200
aI-210
aI20
aI-150
aI-60
aI-50
aI-40
aI270
aI-40
aI-130
aI-40
aI-30
aI-40
aI-70
aI-60
aI-50
aI-40
aI-210
aI-40
aI-30
aI-40
aI-150
aI200
aI-110
aI0
aI-90
aI-40
aI-130
aI-40
aI-130
aI-40
aI0
aI200
aI270
aI-40
aI10
aI-200
aI-30
aI-40
aI-130
aI-60
aI-50
aI-40
aI-70
aI0
aI-210
aI-40
aI-210
aI-40
aI-130
aI-40
aI-110
aI-40
aI-50
aI240
aI0
aI-120
aI270
aI-40
aI-50
aI0
aI170
aI240
aI-110
aI-60
aI-190
aI-20
aI-30
aI-40
aI-30
aI0
aI-50
aI-60
aI-30
aI-40
aI0
aI-60
aI-50
aI-40
aI-210
aI0
aI-50
aI-60
aI-30
aI-60
aI270
aI-40
aI270
aI260
aI-170
aI-60
aI-130
aI-60
aI-90
aI0
aI190
aI-120
aI-30
aI-40
aI-190
aI-40
aI-130
aI-40
aI-110
aI260
aI-210
aI-40
aI-50
aI0
aI0
aI260
aI-150
aI-40
aI-50
aI-40
aI-90
aI-200
aI-90
aI200
aI230
aI-40
aI-50
aI-60
aI-130
aI-60
aI-50
aI240
aI-50
aI-40
aI-50
aI-180
aI-130
aI-40
aI-130
aI-60
aI210
aI-40
aI-130
aI-180
aI-250
aI-40
aI-50
aI260
aI0
aI-40
aI-210
aI-40
aI210
aI-40
aI0
aI-40
aI0
aI-160
aI-210
aI-40
aI-50
aI-40
aI-30
aI0
aI270
aI260
aI-50
aI-120
aI-50
aI0
aI-130
aI240
aI-230
aI-120
aI-50
aI-40
aI-210
aI-200
aI-50
aI-60
aI-70
aI-160
aI-50
aI240
aI-210
aI-120
aI-150
aI240
aI270
aI-40
aI-110
aI-60
aI-50
aI-40
aI250
aI-40
aI-70
aI-60
aI-130
aI-160
aI-250
aI260
aI-250
aI-160
aI-190
aI-40
aI-50
aI-40
aI-70
aI-40
aI-110
aI0
aI-150
aI-40
aI-90
aI260
aI-190
aI-40
aI0
aI-40
aI-50
aI-40
aI-70
aI-40
aI0
aI-40
aI270
aI-80
aI-30
aI-120
aI-270
aI240
aI210
aI280
aI-50
aI-40
aI-30
aI-40
aI-50
aI-60
aI-150
aI240
aI270
aI-220
aI-30
aI-40
aI-50
aI-60
aI0
aI260
aI-150
aI-60
aI190
aI-40
aI-250
aI0
aI-50
aI-40
aI-30
aI240
aI-90
aI-40
aI-90
aI-40
aI-150
aI-200
aI-130
aI200
aI-210
aI-60
aI-70
aI0
aI-130
aI-60
aI-70
aI0
aI-30
aI-40
aI270
aI240
aI-90
aI-40
aI-90
aI200
aI-210
aI-60
aI0
aI-60
aI-210
aI-40
aI-150
aI200
aI-110
aI0
aI-150
aI-40
aI-170
aI-40
aI-50
aI-40
aI-130
aI-40
aI230
aI-40
aI210
aI-40
aI0
aI-40
aI-50
aI-40
aI-110
aI-40
aI-210
aI0
aI-30
aI-120
aI210
aI-40
aI-50
aI-140
aI-210
aI-40
aI-50
aI0
aI-210
aI-40
aI-90
aI240
aI-90
aI0
aI0
aI0
aI-250
aI-200
aI-210
aI-40
aI-50
aI-40
aI-50
aI-40
aI-50
aI-40
aI-190
aI220
aI-210
aI-40
aI-50
aI-60
aI0
aI-40
aI-190
aI-60
aI210
aI280
aI-30
aI-40
aI-50
aI-40
aI-130
aI-40
aI-30
aI-60
aI-210
aI-40
aI-50
aI-40
aI0
aI-40
aI-50
aI-60
aI-210
aI-40
aI-110
aI-60
aI-30
aI-40
aI0
aI-40
aI-190
aI-40
aI-130
aI-40
aI-130
aI-40
aI-210
aI-60
aI-110
aI-40
aI-210
aI200
aI-130
aI-200
aI-50
aI0
aI-70
aI-40
aI-110
aI-60
aI-30
aI160
aI-30
aI-40
aI-50
aI-60
aI-30
aI-160
aI0
aI-40
aI-170
aI-40
aI-130
aI-40
aI-30
aI-220
aI-110
aI-40
aI-50
aI-60
aI-50
aI260
aI-150
aI-60
aI250
aI-40
aI210
aI-40
aI0
aI0
aI-130
aI-60
aI-30
aI-40
aI-70
aI-40
aI-150
aI-40
aI-70
aI0
aI-40
aI-30
aI-40
aI-90
aI-40
aI250
aI0
aI-110
aI240
aI-50
aI0
aI-110
aI-40
aI-50
aI240
aI-30
aI-40
aI-190
aI240
aI-30
aI-60
aI-30
aI-60
aI-50
aI-60
aI-30
aI-40
aI-190
aI260
aI-190
aI-40
aI-150
aI-40
aI-270
aI240
aI-70
aI-40
aI-130
aI-40
aI-130
aI-60
aI-110
aI-40
aI-10
aI-40
aI0
aI0
aI-190
aI-40
aI-110
aI-40
aI-250
aI-60
aI-30
aI0
aI0
aI-60
aI-150
aI260
aI-50
aI-40
aI-150
aI-60
aI-190
aI0
aI-190
aI-40
aI-110
aI240
aI-250
aI240
aI-130
aI-40
aI-10
aI-60
aI-50
aI160
aI-110
aI-160
aI250
aI-40
aI-130
aI-40
aI-30
aI-40
aI-110
aI-40
aI-50
aI-40
aI-110
aI200
aI290
aI-40
aI-50
aI-40
aI-30
aI-60
aI-50
aI0
aI0
aI200
aI-70
aI-40
aI-90
aI-60
aI-30
aI-60
aI-210
aI-40
aI-210
aI-40
aI0
aI-40
aI-210
aI0
aI-30
aI-40
aI250
aI-160
aI-210
aI-60
aI-30
aI-40
aI-70
aI-200
aI-190
aI-40
aI-10
aI-40
aI-210
aI-200
aI0
aI-60
aI-190
aI-40
aI-70
aI-200
aI-130
aI-40
aI0
aI-40
aI0
aI-40
aI-250
aI-40
aI-110
aI-60
aI-110
aI-40
aI290
aI-200
aI-90
aI260
aI-90
aI240
aI210
aI-40
aI-30
aI-100
aI-190
aI-60
aI-50
aI-40
aI-30
aI-40
aI230
aI-200
aI-230
aI-40
aI0
aI-40
aI-50
aI0
aI230
aI240
aI-210
aI-40
aI-190
aI-40
aI-110
aI0
aI-90
aI0
aI0
aI-80
aI-30
aI0
aI-50
aI-160
aI-50
aI-40
aI-230
aI-40
aI-30
aI-40
aI-30
aI-60
aI-210
aI-40
aI250
aI0
aI-50
aI-40
aI0
aI-160
aI-110
aI-60
aI-50
aI240
aI230
aI-40
aI-50
aI-120
aI-30
aI-40
aI0
aI-40
aI-110
aI-40
aI230
aI240
aI0
aI-40
aI-50
aI-40
aI0
aI-120
aI-30
aI-120
aI-190
aI-40
aI-50
aI-60
aI-50
aI-40
aI-110
aI-60
aI-30
aI-40
aI-90
aI-160
aI210
aI-160
aI-30
aI-180
aI-90
aI-40
aI-50
aI240
aI-30
aI-40
aI-210
aI-200
aI-130
aI-120
aI-50
aI-60
aI-70
aI-40
aI-30
aI-200
aI-210
aI-40
aI0
aI-40
aI-190
aI-120
aI-70
aI-60
aI-150
aI-40
aI190
aI-120
aI210
aI-160
aI-110
aI-40
aI-110
aI-40
aI190
aI-80
aI-150
aI200
aI-110
aI200
aI-110
aI-40
aI-230
aI-160
aI230
aI-40
aI-30
aI-40
aI-110
aI-40
aI0
aI-40
aI-50
aI-60
aI-110
aI0
aI-50
aI-40
aI0
aI160
aI-50
aI-60
aI-210
aI-40
aI-210
aI-40
aI-10
aI260
aI-110
aI260
aI0
aI-60
aI-50
aI0
aI-230
aI-60
aI-30
aI-40
aI-130
aI-40
aI-30
aI-40
aI-50
aI260
aI-250
aI-180
aI-50
aI0
aI-210
aI-40
aI0
aI0
aI-90
aI-40
aI-130
aI-60
aI-210
aI-40
aI290
aI-60
aI-110
aI-60
aI0
aI-40
aI-130
aI20
aI-50
aI-60
aI-90
aI0
aI90
aI-60
aI-50
aI0
aI-40
aI-90
aI-40
aI-50
aI-60
aI-70
aI-40
aI-150
aI-60
aI0
aI260
aI210
aI-40
aI-70
aI-40
aI-50
aI-120
aI-190
aI-60
aI210
aI-100
aI-110
aI-60
aI-210
aI240
aI-30
aI-40
aI-50
aI-60
aI-110
aI-40
aI-50
aI-40
aI0
aI-40
aI230
aI-40
aI-110
aI-60
aI230
aI-40
aI-50
aI-40
aI-110
aI0
aI-170
aI-40
aI210
aI-40
aI-130
aI0
aI-30
aI-40
aI-50
aI-160
aI-50
aI0
aI-50
aI260
aI210
aI-40
aI0
aI-40
aI-190
aI-40
aI-190
aI-40
aI270
aI-120
aI-30
aI-40
aI210
aI-120
aI-50
aI-240
aI-190
aI-40
aI-30
aI-60
aI-130
aI0
aI-50
aI-200
aI-10
aI-40
aI-210
aI-40
aI-50
aI-60
aI-30
aI-40
aI-30
aI0
aI-190
aI-60
aI-130
aI-40
aI0
aI-40
aI-50
aI-40
aI-150
aI-40
aI-50
aI240
aI-30
aI200
aI-50
aI0
aI230
aI-40
aI-110
aI-60
aI-50
aI-40
aI-210
aI-40
aI250
aI-40
aI-110
aI0
aI-50
aI-60
aI-90
aI-60
aI-30
aI-40
aI210
aI-40
aI-50
aI-60
aI210
aI-140
aI-130
aI-60
aI270
aI-200
aI-50
aI240
aI-210
aI-40
aI-50
aI-40
aI-50
aI-60
aI-130
aI-40
aI250
aI240
aI-50
aI240
aI270
aI0
aI-130
aI-160
aI-90
aI-40
aI250
aI240
aI-130
aI-180
aI-190
aI-40
aI-30
aI0
aI230
aI-40
aI0
aI-200
aI0
aI-40
aI0
aI-40
aI0
aI-180
aI230
aI-40
aI0
aI240
aI-30
aI-40
aI-30
aI-40
aI-30
aI-40
aI210
aI-60
aI-110
aI0
aI0
aI-40
aI-90
aI-160
aI-150
aI-60
aI-110
aI-80
aI-110
aI-200
aI230
aI-40
aI-150
aI260
aI-190
aI-40
aI230
aI-40
aI-70
aI-60
aI-50
aI-40
aI210
aI-200
aI-30
aI-40
aI-50
aI-40
aI-30
aI-200
aI-90
aI-40
aI0
aI-40
aI-90
aI-40
aI-150
aI-40
aI-190
aI-60
aI-150
aI-120
aI-110
aI-40
aI-90
aI-60
aI-30
aI-40
aI-110
aI-60
aI-30
aI260
aI-130
aI-60
aI0
aI-120
aI-70
aI-40
aI-150
aI-220
aI-50
aI180
aI-170
aI-40
aI-110
aI-40
aI0
aI-60
aI-50
aI-40
aI-30
aI0
aI210
aI-40
aI-110
aI200
aI-210
aI-40
aI-90
aI-60
aI-110
aI-40
aI190
aI-60
aI290
aI-60
aI-90
aI0
aI-50
aI0
aI210
aI-40
aI-50
aI-40
aI-190
aI240
aI0
aI-60
aI-110
aI-40
aI-50
aI-160
aI-50
aI-200
aI-90
aI-120
aI0
aI-40
aI-70
aI-120
aI-230
aI-40
aI-150
aI-60
aI270
aI-40
aI-70
aI-40
aI-30
aI-40
aI-110
aI-40
aI-50
aI240
aI-190
aI-40
aI-50
aI-40
aI-50
aI240
aI210
aI-40
aI-50
aI-40
aI-50
aI-40
aI-110
aI-20
aI-50
aI-40
aI-130
aI-40
aI-90
aI-40
aI-190
aI-40
aI-150
aI-40
aI-30
aI-40
aI-50
aI-40
aI270
aI-60
aI0
aI-40
aI-30
aI-40
aI-250
aI-40
aI-150
aI-40
aI250
aI0
aI210
aI180
aI-150
aI-40
aI-30
aI240
aI0
aI-40
aI-30
aI-40
aI-90
aI260
aI-90
aI-40
aI270
aI-40
aI-50
aI-60
aI-130
aI-160
aI-210
aI-40
aI-70
aI260
aI-70
aI0
aI-110
aI260
aI-30
aI-60
aI-30
aI-60
aI-50
aI-180
aI-250
aI240
aI270
aI-40
aI-190
aI-40
aI-110
aI-40
aI-30
aI240
aI-210
aI-40
aI0
aI-40
aI-110
aI-40
aI-150
aI-40
aI-210
aI-60
aI-50
aI-40
aI-190
aI-160
aI-30
aI240
aI-50
aI240
aI-50
aI240
aI-30
aI-100
aI-30
aI240
aI0
aI-40
aI-150
aI-60
aI-150
aI-40
aI-150
aI-60
aI-110
aI0
aI250
aI-200
aI210
aI240
aI-230
aI-40
aI-130
aI-40
aI210
aI-40
aI-110
aI-40
aI-130
aI-160
aI-50
aI-160
aI-30
aI-40
aI-150
aI-40
aI0
aI-60
aI-50
aI240
aI230
aI-40
aI270
aI-60
aI-110
aI200
aI-150
aI-40
aI-90
aI260
aI0
aI-40
aI210
aI260
aI250
aI-40
aI-150
aI260
aI-50
aI-40
aI0
aI-40
aI210
aI-40
aI-130
aI-40
aI-30
aI-160
aI250
aI-40
aI-10
aI-120
aI-30
aI-40
aI230
aI-200
aI210
aI-40
aI-210
aI260
aI-150
aI-40
aI210
aI-40
aI-50
aI-60
aI-250
aI-40
aI270
aI-60
aI-150
aI-60
aI-50
aI-40
aI-170
aI-40
aI-30
aI-60
aI-110
aI240
aI-30
aI-40
aI250
aI-60
aI0
aI-40
aI-110
aI280
aI0
aI-40
aI-110
aI-40
aI-50
aI180
aI-50
aI-60
aI-50
aI-60
aI0
aI-60
aI-50
aI-40
aI10
aI-160
aI-210
aI-60
aI-170
aI-180
aI-110
aI-40
aI250
aI-40
aI-50
aI-40
aI250
aI-40
aI0
aI-40
aI-70
aI-40
aI230
aI-120
aI-30
aI240
aI-130
aI-200
aI-70
aI-60
aI-50
aI-40
aI-50
aI-200
aI-210
aI-40
aI-30
aI0
aI-190
aI-40
aI-210
aI-40
aI-70
aI-40
aI-90
aI-40
aI290
aI-40
aI-50
aI-40
aI250
aI-40
aI-50
aI-60
aI-170
aI-40
aI-30
aI-40
aI-30
aI-40
aI-50
aI-40
aI230
aI-40
aI230
aI240
aI-170
aI-60
aI-230
aI0
aI-130
aI-40
aI-30
aI0
aI-30
aI0
aI-110
aI240
aI-50
aI-120
aI0
aI0
aI-190
aI-40
aI-210
aI-60
aI290
aI-40
aI-50
aI-120
aI-110
aI0
aI-50
aI0
aI0
aI-60
aI-150
aI-60
aI-30
aI-60
aI-50
aI0
aI-90
aI-40
aI0
aI0
aI-30
aI-40
aI0
aI-60
aI-270
aI180
aI-50
aI-60
aI270
aI-40
aI-230
aI-40
aI-30
aI260
aI-50
aI-40
aI-30
aI-160
aI0
aI-40
aI-30
aI-40
aI250
aI0
aI0
aI-40
aI230
aI-40
aI210
aI-80
aI-30
aI-60
aI-90
aI-40
aI-70
aI-40
aI-30
aI-40
aI230
aI-40
aI-50
aI-60
aI-210
aI240
aI-50
aI-40
aI-50
aI240
aI-150
aI-60
aI-70
aI0
aI-50
aI-40
aI-30
aI-40
aI0
aI-60
aI-70
aI-40
aI210
aI-40
aI-50
aI0
aI-130
aI-140
aI270
aI0
aI0
aI-60
aI-210
aI0
aI-150
aI-40
aI-30
aI-40
aI-170
aI-160
aI-110
aI-100
aI-50
aI-40
aI230
aI-40
aI-190
aI-40
aI0
aI-60
aI-190
aI-60
aI210
aI-60
aI-50
aI-40
aI-150
aI-120
aI-150
aI-40
aI-190
aI-60
aI0
aI-40
aI-90
aI-40
aI230
aI-60
aI270
aI-40
aI-70
aI-40
aI-30
aI-40
aI-30
aI-40
aI-150
aI280
aI270
aI-40
aI-30
aI-80
aI-50
aI-40
aI250
aI-40
aI-30
aI-40
aI0
aI-40
aI-150
aI-40
aI290
aI-40
aI-150
aI-40
aI210
aI-60
aI-210
aI-40
aI-110
aI-200
aI-30
aI-40
aI-30
aI-60
aI-70
aI0
aI210
aI-40
aI-50
aI240
aI210
aI-60
aI-150
aI-40
aI-30
aI-60
aI-230
aI-40
aI-170
aI-160
aI-50
aI0
aI250
aI-40
aI-30
aI-200
aI230
aI-220
aI-90
aI-40
aI-110
aI-60
aI-150
aI-40
aI-30
aI-40
aI-30
aI-40
aI-50
aI-40
aI-50
aI-160
aI0
aI-40
aI-110
aI0
aI250
aI-60
aI-110
aI-40
aI-150
aI-40
aI-30
aI-40
aI-110
aI-60
aI-30
aI-40
aI-50
aI240
aI-30
aI0
aI-30
aI-20
aI-50
aI-200
aI-190
aI-60
aI-70
aI0
aI-30
aI-60
aI210
aI180
aI-90
aI-40
aI-150
aI-40
aI230
aI240
aI-150
aI-40
aI-230
aI-60
aI-50
aI-40
aI-50
aI-40
aI-90
aI-40
aI-50
aI-40
aI-110
aI-40
aI-70
aI-60
aI290
aI240
aI-90
aI-60
aI-190
aI160
aI230
aI-40
aI-170
aI-40
aI-30
aI240
aI-130
aI-240
aI-110
aI-40
aI-50
aI-40
aI-50
aI0
aI-190
aI-60
aI-170
aI240
aI-210
aI-40
aI-110
aI-40
aI-210
aI-60
aI190
aI200
aI-210
aI-40
aI-250
aI-40
aI190
aI0
aI-210
aI-40
aI270
aI-40
aI-30
aI-60
aI-90
aI-60
aI-190
aI-40
aI-30
aI-40
aI-30
aI160
aI-50
aI200
aI-210
aI-40
aI-30
aI-40
aI-170
aI-40
aI-190
aI-60
aI-210
aI200
aI-50
aI-60
aI-150
aI240
aI-90
aI-40
aI-150
aI260
aI-50
aI-100
aI-50
aI-40
aI-190
aI-200
aI-70
aI-60
aI-30
aI-40
aI-110
aI-40
aI-50
aI-40
aI-50
aI160
aI-30
aI-60
aI190
aI-60
aI230
aI-40
aI-110
aI-40
aI-210
aI-40
aI-90
aI-40
aI-30
aI-120
aI250
aI160
aI-10
aI-60
aI-130
aI-40
aI-90
aI-60
aI-70
aI-40
aI-70
aI-60
aI-210
aI-40
aI-30
aI-60
aI0
aI-40
aI-50
aI-40
aI190
aI-40
aI-110
aI-160
aI-50
aI-120
aI230
aI260
aI-130
aI-40
aI-130
aI-60
aI-110
aI-40
aI-110
aI-40
aI-110
aI240
aI0
aI-40
aI-210
aI-60
aI270
aI-40
aI-170
aI-200
aI-210
aI-40
aI-30
aI-40
aI-50
aI-40
aI230
aI240
aI-50
aI0
aI-130
aI-40
aI-30
aI-40
aI-190
aI-40
aI210
aI-40
aI-110
aI-200
aI-110
aI260
aI-210
aI-60
aI-190
aI200
aI-210
aI0
aI-210
aI-120
aI-170
aI200
aI-170
aI-60
aI250
aI-60
aI270
aI-60
aI-50
aI-120
aI-50
aI-60
aI-50
aI-60
aI-130
aI-40
aI-110
aI-120
aI-30
aI-200
aI-50
aI-40
aI-50
aI-40
aI250
aI240
aI-210
aI-40
aI-30
aI-40
aI-110
aI-40
aI-70
aI-120
aI-210
aI-40
aI-50
aI-40
aI210
aI200
aI-30
aI-40
aI-110
aI-40
aI-30
aI-120
aI210
aI-120
aI-50
aI-40
aI250
aI-40
aI-110
aI-40
aI-50
aI200
aI-110
aI-120
aI-30
aI-40
aI-30
aI-60
aI210
aI-200
aI-30
aI-120
aI-250
aI240
aI270
aI-40
aI-10
aI-40
aI-50
aI-60
aI0
aI260
aI-50
aI-60
aI-30
aI-40
aI0
aI-60
aI190
aI-60
aI-250
aI-120
aI-210
aI-60
aI-30
aI-40
aI-50
aI-40
aI210
aI-40
aI-30
aI-40
aI0
aI-60
aI190
aI-40
aI-30
aI-60
aI210
aI0
aI-110
aI-220
aI-90
aI-40
aI-50
aI180
aI-150
aI-40
aI0
aI240
aI-50
aI-40
aI-110
aI220
aI-230
aI-40
aI230
aI-40
aI-30
aI-40
aI0
aI240
aI-30
aI-40
aI-30
aI-40
aI-150
aI-180
aI190
aI-40
aI-50
aI-60
aI0
aI-60
aI-230
aI-60
aI-150
aI-40
aI-50
aI-40
aI-10
aI-60
aI250
aI-40
aI-30
aI-40
aI-70
aI-40
aI-30
aI-120
aI230
aI260
aI-110
aI-40
aI270
aI-40
aI-50
aI-60
aI-30
aI-40
aI-50
aI-180
aI250
aI-40
aI-150
aI-200
aI-30
aI-40
aI-110
aI-40
aI230
aI-40
aI-210
aI-40
aI-150
aI240
aI-50
aI-40
aI-50
aI-60
aI-230
aI-40
aI-50
aI-40
aI-30
aI-40
aI-50
aI-60
aI-210
aI-40
aI-70
aI220
aI0
aI-40
aI-30
aI-40
aI-50
aI-40
aI-70
aI-40
aI-230
aI260
aI-130
aI-40
aI-90
aI0
aI-50
aI-160
aI-70
aI-60
aI-30
aI-40
aI-50
aI-40
aI-30
aI-40
aI-170
aI-40
aI-150
aI-40
aI-190
aI-40
aI-130
aI-60
aI-50
aI-160
aI190
aI0
aI-110
aI-40
aI-90
aI-40
aI-110
aI-120
aI-210
aI-40
aI-110
aI-160
aI-50
aI-200
aI-50
aI-40
aI-50
aI-40
aI-110
aI-160
aI-110
aI-40
aI-90
aI-60
aI210
aI-40
aI-50
aI-40
aI-170
aI240
aI-250
aI-140
aI290
aI-120
aI-50
aI-60
aI-50
aI-40
aI-30
aI-60
aI-50
aI-40
aI-30
aI-40
aI-190
aI0
aI-90
aI-40
aI-190
aI-40
aI0
aI0
aI-50
aI-40
aI-30
aI-40
aI250
aI-60
aI0
aI200
aI-150
aI-40
aI-50
aI280
aI-190
aI-160
aI-70
aI260
aI-150
aI-120
aI-110
aI0
aI0
aI-40
aI-50
aI-40
aI-50
aI-80
aI-50
aI-40
aI-110
aI0
aI-30
aI-120
aI-30
aI-40
aI-50
aI0
aI240
aI0
aI-40
aI-30
aI-40
aI-30
aI-40
aI-50
aI-60
aI-30
aI260
aI270
aI-60
aI-30
aI-40
aI0
aI200
aI-190
aI0
aI-50
aI-40
aI-30
aI-60
aI-30
aI0
aI-50
aI0
aI-150
aI-40
aI210
aI-200
aI-50
aI-60
aI250
aI-40
aI-30
aI-40
aI-210
aI-60
aI-210
aI-40
aI-90
aI-120
aI-270
aI200
aI-130
aI260
aI-190
aI-60
aI-110
aI-40
aI0
aI-40
aI-250
aI-60
aI-110
aI-40
aI-50
aI-60
aI0
aI-180
aI210
aI-40
aI-210
aI-60
aI-50
aI-80
aI-50
aI20
aI0
aI-60
aI-230
aI0
aI-130
aI-80
aI-50
aI260
aI290
aI0
aI-30
aI0
aI0
aI-40
aI-30
aI-40
aI-50
aI200
aI-110
aI-40
aI-110
aI0
aI-270
aI280
aI-110
aI-60
aI-130
aI240
aI230
aI-200
aI-30
aI-40
aI190
aI-40
aI-30
aI200
aI0
aI-40
aI-170
aI200
aI0
aI-40
aI-50
aI-40
aI210
aI-40
aI-50
aI240
aI-130
aI-120
aI-50
aI-40
aI230
aI-40
aI-50
aI-40
aI-50
aI0
aI-170
aI-40
aI-110
aI-160
aI-210
aI-40
aI250
aI-40
aI-50
aI-40
aI-30
aI260
aI-190
aI-40
aI-30
aI-40
aI-210
aI-60
aI-50
aI-40
aI-210
aI-40
aI270
aI-60
aI-50
aI-200
aI-110
aI-40
aI250
aI-40
aI0
aI-40
aI-50
aI-40
aI290
aI-200
aI-110
aI0
aI-70
aI-40
aI-130
aI-40
aI-30
aI-160
aI-210
aI-180
aI-110
aI0
aI10
aI220
aI-190
aI-160
aI230
aI-40
aI-230
aI-200
aI-110
aI-200
aI-110
aI-200
aI-50
aI200
aI-210
aI-20
aI190
aI-60
aI-190
aI0
aI-110
aI-40
aI-190
aI-120
aI250
aI240
aI250
aI-60
aI0
aI220
aI-110
aI-40
aI-50
aI-180
aI-50
aI-40
aI-210
aI-40
aI-130
aI-40
aI230
aI200
aI-210
aI-60
aI-50
aI0
aI-50
aI-40
aI-50
aI200
aI-90
aI-40
aI-90
aI-40
aI190
aI180
aI-110
aI180
aI-150
aI-60
aI-70
aI-40
aI-30
aI-40
aI-10
aI-40
aI-110
aI240
aI-30
aI280
aI-150
aI-60
aI-70
aI-40
aI-210
aI-40
aI0
aI-60
aI-170
aI0
aI-30
aI0
aI-50
aI-40
aI-50
aI240
aI-70
aI-160
aI-210
aI160
aI-30
aI-40
aI-70
aI240
aI-50
aI-180
aI230
aI-40
aI-50
aI-40
aI0
aI-40
aI-30
aI-40
aI-190
aI260
aI-30
aI-40
aI-90
aI-40
aI-210
aI-40
aI-150
aI-60
aI-30
aI200
aI-110
aI0
aI290
aI-40
aI-110
aI-40
aI-50
aI0
aI-70
aI-60
aI-110
aI-40
aI10
aI-40
aI-30
aI-40
aI230
aI-120
aI-230
aI240
aI210
aI-60
aI-50
aI-160
aI-250
aI-40
aI0
aI-120
aI210
aI-40
aI-190
aI-180
aI0
aI-40
aI-30
aI-40
aI-50
aI-40
aI-50
aI-40
aI-50
aI-40
aI-30
aI-40
aI250
aI-200
aI-130
aI-40
aI-10
aI-40
aI-110
aI-60
aI-70
aI-40
aI-50
aI200
aI-50
aI-40
aI-30
aI0
aI270
aI-60
aI-50
aI-60
aI-90
aI-40
aI-110
aI-40
aI-50
aI-40
aI-150
aI260
aI-170
aI-40
aI-30
aI0
aI-30
aI-40
aI-210
aI240
aI-30
aI-60
aI-210
aI-40
aI-190
aI-60
aI-50
aI-40
aI270
aI-40
aI290
aI-120
aI-90
aI-40
aI-30
aI-120
aI-30
aI-200
aI-150
aI240
aI-110
aI-40
aI-170
aI-40
aI-30
aI-60
aI-190
aI-60
aI-50
aI-40
aI-110
aI-60
aI-50
aI0
aI-50
aI-40
aI0
aI0
aI-110
aI-40
aI-50
aI-40
aI-50
aI-60
aI-110
aI-60
aI250
aI-40
aI-30
aI-40
aI-110
aI0
aI230
aI0
aI-50
aI-40
aI-130
aI0
aI-50
aI-40
aI-30
aI-160
aI-50
aI-40
aI210
aI-60
aI-30
aI-40
aI0
aI-40
aI-50
aI0
aI-50
aI-40
aI-70
aI-60
aI-110
aI-40
aI270
aI-40
aI230
aI-40
aI0
aI-40
aI250
aI-40
aI-70
aI-40
aI-130
aI-60
aI-50
aI-40
aI250
aI180
aI270
aI-40
aI-50
aI-40
aI-50
aI-40
aI250
aI-200
aI-230
aI160
aI-90
aI-40
aI0
aI-160
aI-130
aI240
aI-130
aI-40
aI-110
aI-60
aI-30
aI240
aI-30
aI-60
aI-270
aI-40
aI-130
aI180
aI210
aI-180
aI230
aI-40
aI-50
aI-40
aI-110
aI240
aI210
aI-40
aI-110
aI-60
aI-50
aI-40
aI-50
aI-200
aI-230
aI-60
aI290
aI0
aI-30
aI260
aI-150
aI-60
aI-30
aI-40
aI-170
aI-40
aI-210
aI0
aI-50
aI-200
aI-50
aI260
aI-70
aI260
aI-150
aI-60
aI-30
aI-40
aI-90
aI-40
aI-30
aI260
aI-130
aI-40
aI0
aI-40
aI-130
aI-40
aI-70
aI-40
aI-210
aI-40
aI-190
aI-60
aI-130
aI-40
aI-210
aI-160
aI270
aI-160
aI0
aI-200
aI-50
aI-40
aI230
aI-100
aI-30
aI-100
aI-50
aI200
aI-190
aI-40
aI-50
aI-40
aI-10
aI-40
aI-90
aI-60
aI-30
aI-40
aI-50
aI-40
aI-30
aI-40
aI-90
aI0
aI-30
aI-40
aI-70
aI-120
aI0
aI-220
aI-110
aI-40
aI0
aI-60
aI-50
aI-140
aI-190
aI-40
aI-50
aI-40
aI-10
aI-60
aI-50
aI-60
aI-50
aI-40
aI-30
aI-40
aI-210
aI240
aI-30
aI240
aI-130
aI-200
aI-130
aI-120
aI-130
aI-40
aI-30
aI-40
aI190
aI260
aI0
aI-40
aI-30
aI240
aI-50
aI-60
aI-30
aI-40
aI-210
aI-120
aI-110
aI180
aI210
aI200
aI0
aI-40
aI-30
aI-40
aI-50
aI0
aI-70
aI-40
aI-50
aI-40
aI-130
aI-40
aI-190
aI-60
aI-150
aI0
aI-30
aI-60
aI-50
aI-40
aI-110
aI240
aI-70
aI-40
aI-70
aI-180
aI-110
aI-40
aI0
aI-40
aI270
aI-40
aI-50
aI-120
aI0
aI180
aI-130
aI-40
aI-30
aI-40
aI-270
aI-40
aI-130
aI-40
aI-250
aI-40
aI210
aI0
aI-70
aI-40
aI-50
aI-60
aI-70
aI-40
aI-110
aI-40
aI-70
aI0
aI-30
aI200
aI-170
aI-40
aI-30
aI-40
aI-150
aI0
aI-50
aI200
aI-150
aI-120
aI-190
aI240
aI-50
aI-40
aI-50
aI-40
aI-150
aI-40
aI-50
aI-40
aI290
aI-40
aI-130
aI240
aI-30
aI240
aI-50
aI-40
aI-30
aI-40
aI0
aI-40
aI-130
aI-60
aI0
aI-40
aI250
aI-40
aI-50
aI240
aI-50
aI-60
aI-30
aI-40
aI-30
aI-40
aI230
aI-40
aI-50
aI0
aI-250
aI0
aI-110
aI-40
aI0
aI200
aI-50
aI260
aI-90
aI-180
aI-30
aI-60
aI-50
aI240
aI-90
aI-60
aI-130
aI0
aI270
aI-160
aI-50
aI200
aI-110
aI240
aI-30
aI260
aI-50
aI-40
aI-50
aI-40
aI-130
aI-60
aI250
aI-60
aI-70
aI240
aI-30
aI-40
aI-110
aI-40
aI-50
aI-40
aI-70
aI-200
aI250
aI-60
aI-150
aI-40
aI0
aI-40
aI-50
aI240
aI-250
aI-60
aI230
aI-40
aI-30
aI0
aI-110
aI-40
aI-50
aI-40
aI0
aI240
aI0
aI-40
aI-110
aI-40
aI-30
aI-40
aI-50
aI-180
aI230
aI-40
aI-30
aI180
aI-50
aI-60
aI-210
aI240
aI-70
aI-60
aI-70
aI-40
aI-70
aI-40
aI0
aI-100
aI-170
aI-40
aI270
aI-40
aI-190
aI0
aI-210
aI-120
aI-130
aI-60
aI-170
aI200
aI-70
aI-40
aI-30
aI0
aI-90
aI-40
aI-70
aI-40
aI210
aI-40
aI-50
aI-60
aI-30
aI260
aI-50
aI-60
aI-50
aI-180
aI-130
aI-40
aI-70
aI-40
aI-70
aI240
aI-30
aI-40
aI-70
aI-40
aI-270
aI-40
aI-30
aI240
aI0
aI-200
aI0
aI240
aI-50
aI-40
aI-210
aI240
aI-70
aI-60
aI-110
aI200
aI-110
aI200
aI-50
aI0
aI250
aI-60
aI-190
aI240
aI-150
aI-100
aI0
aI-40
aI-150
aI0
aI-50
aI-40
aI-50
aI-40
aI-50
aI0
aI-170
aI0
aI-50
aI-40
aI-110
aI-40
aI-10
aI-40
aI-50
aI-60
aI-50
aI240
aI0
aI240
aI-190
aI0
aI-250
aI240
aI210
aI-40
aI0
aI-120
aI-30
aI-60
aI-70
aI-40
aI-50
aI0
aI-110
aI-120
aI-30
aI-40
aI-90
aI-40
aI-50
aI-40
aI-210
aI-40
aI-110
aI-40
aI-50
aI-60
aI0
aI260
aI-70
aI-120
aI-50
aI-80
aI-30
aI-120
aI-190
aI240
aI-270
aI-40
aI0
aI260
aI-50
aI-60
aI-50
aI-200
aI-50
aI200
aI150
aI-40
aI190
aI-60
aI0
aI160
aI-30
aI-60
aI-70
aI-60
aI290
aI-40
aI-130
aI-60
aI-250
aI-40
aI-270
aI-40
aI210
aI-80
aI-50
aI-40
aI-50
aI-40
aI-50
aI-120
aI-50
aI-40
aI250
aI-40
aI0
aI-40
aI0
aI-40
aI-90
aI180
aI-150
aI240
aI-30
aI-40
aI-50
aI-60
aI-50
aI-120
aI-130
aI240
aI-50
aI-40
aI-30
aI-60
aI-210
aI-40
aI0
aI-160
aI-210
aI-60
aI-30
aI-40
aI-190
aI-40
aI-30
aI-40
aI0
aI160
aI-250
aI-40
aI-110
aI-120
aI-70
aI-60
aI250
aI-40
aI-190
aI-40
aI-50
aI-40
aI0
aI-80
aI-110
aI-40
aI-50
aI0
aI-210
aI-40
aI-90
aI-200
aI-30
aI-20
aI210
aI-60
aI-50
aI-40
aI-170
aI-40
aI-130
aI-40
aI-30
aI-40
aI-50
aI-40
aI-110
aI-200
aI-50
aI-40
aI-130
aI-40
aI-210
aI-40
aI-210
aI-100
aI-50
aI-40
aI-50
aI-40
aI-270
aI-40
aI0
aI-40
aI-90
aI-60
aI-50
aI-40
aI0
aI-60
aI-190
aI-160
aI270
aI-40
aI-170
aI-40
aI-50
aI240
aI-30
aI-40
aI-210
aI180
aI0
aI-40
aI-150
aI-40
aI-110
aI-60
aI-130
aI-60
aI-170
aI-40
aI-30
aI-40
aI-230
aI-40
aI-150
aI-40
aI-210
aI-40
aI-270
aI0
aI230
aI-40
aI230
aI-120
aI-50
aI-120
aI-210
aI0
aI250
aI-40
aI-30
aI240
aI-90
aI-180
aI-110
aI-40
aI-150
aI-40
aI-50
aI-40
aI-70
aI-40
aI-50
aI-120
aI-50
aI-40
aI-110
aI-40
aI-30
aI240
aI-90
aI-40
aI-210
aI-40
aI0
aI-40
aI-210
aI-60
aI-190
aI-40
aI290
aI-40
aI-30
aI-40
aI-50
aI-40
aI-190
aI0
aI-90
aI-40
aI0
aI0
aI-30
aI-40
aI250
aI240
aI-150
aI-120
aI250
aI-60
aI-230
aI0
aI-90
aI-40
aI-110
aI-200
aI0
aI-40
aI-150
aI240
aI-50
aI-40
aI190
aI260
aI-10
aI-40
aI-210
aI-160
aI-210
aI-40
aI-130
aI240
aI210
aI-40
aI210
aI0
aI250
aI-40
aI-190
aI240
aI250
aI-40
aI-150
aI-60
aI230
aI240
aI-30
aI-40
aI250
aI-40
aI-50
aI0
aI-30
aI-80
aI-130
aI260
aI-150
aI-40
aI-50
aI-40
aI0
aI-200
aI-30
aI-40
aI-30
aI-40
aI-50
aI180
aI-30
aI-40
aI0
aI240
aI-50
aI-200
aI-230
aI-60
aI-190
aI-40
aI-210
aI-160
aI-30
aI-40
aI-170
aI-40
aI0
aI-40
aI-170
aI0
aI-70
aI260
aI-70
aI-40
aI-210
aI-160
aI-30
aI-60
aI-50
aI-40
aI-130
aI-40
aI-50
aI-60
aI-50
aI0
aI-50
aI200
aI270
aI-60
aI-70
aI-60
aI-50
aI-200
aI-150
aI260
aI-30
aI260
aI-50
aI-40
aI-30
aI-120
aI-130
aI-40
aI-210
aI240
aI250
aI-40
aI-50
aI-160
aI-50
aI-40
aI-110
aI-40
aI-190
aI-40
aI-30
aI-40
aI-190
aI240
aI-150
aI-40
aI-10
aI-60
aI-30
aI-40
aI-90
aI-40
aI-190
aI-40
aI-90
aI-40
aI-50
aI-40
aI0
aI-40
aI-150
aI-40
aI10
aI0
aI-30
aI-40
aI-30
aI0
aI-70
aI-40
aI-30
aI0
aI-50
aI-40
aI-50
aI-40
aI-190
aI0
aI-130
aI240
aI-30
aI-40
aI-30
aI-40
aI-50
aI-200
aI250
aI260
aI-50
aI-40
aI-50
aI-120
aI-130
aI0
aI-30
aI-40
aI-50
aI-40
aI-190
aI-60
aI-50
aI-40
aI-50
aI-40
aI-110
aI-40
aI-50
aI-40
aI-70
aI-40
aI-30
aI-60
aI-30
aI-40
aI-30
aI-40
aI230
aI-40
aI-50
aI-60
aI-30
aI-40
aI-130
aI160
aI-10
aI-60
aI230
aI-200
aI-30
aI-40
aI-70
aI240
aI-50
aI-40
aI-50
aI-40
aI-50
aI-40
aI-210
aI0
aI-70
aI240
aI-110
aI240
aI0
aI-200
aI0
aI-60
aI-50
aI-40
aI-110
aI0
aI-30
aI0
aI-130
aI-40
aI-50
aI-40
aI-70
aI-40
aI-190
aI-40
aI-50
aI-40
aI250
aI-160
aI190
aI-60
aI-90
aI240
aI-110
aI-40
aI-50
aI160
aI-130
aI-40
aI-130
aI0
aI-50
aI260
aI-110
aI-40
aI-130
aI-40
aI-30
aI-40
aI-50
aI-200
aI-210
aI-40
aI-50
aI-40
aI-50
aI-40
aI0
aI-40
aI-130
aI-40
aI-210
aI-40
aI-30
aI-40
aI-110
aI-40
aI-50
aI-60
aI-150
aI0
aI-30
aI200
aI-30
aI240
aI-70
aI-40
aI-190
aI-40
aI-50
aI-60
aI-50
aI180
aI-50
aI-40
aI-210
aI240
aI250
aI-60
aI-210
aI-60
aI-30
aI-60
aI-50
aI240
aI-110
aI-180
aI-130
aI-40
aI230
aI-60
aI-190
aI-120
aI290
aI180
aI230
aI-40
aI230
aI-60
aI-30
aI240
aI-90
aI-40
aI-70
aI-40
aI-30
aI240
aI-110
aI-60
aI230
aI-40
aI0
aI240
aI0
aI-40
aI-30
aI0
aI-210
aI-40
aI-210
aI-40
aI-110
aI-40
aI250
aI-40
aI-110
aI0
aI-210
aI-40
aI-50
aI-60
aI-50
aI-40
aI-90
aI240
aI-130
aI-40
aI-70
aI-60
aI0
aI-40
aI-90
aI-40
aI-30
aI0
aI-70
aI-40
aI-50
aI-40
aI210
aI260
aI-70
aI-200
aI0
aI240
aI0
aI-60
aI-210
aI-60
aI-50
aI-60
aI-70
aI-60
aI-210
aI0
aI-50
aI-40
aI-130
aI-60
aI0
aI-60
aI-50
aI-60
aI-50
aI-40
aI-130
aI280
aI-170
aI-40
aI-210
aI-60
aI-150
aI-120
aI-30
aI-60
aI-90
aI-60
aI270
aI-40
aI-190
aI0
aI-30
aI-60
aI270
aI-40
aI-150
aI-40
aI210
aI-200
aI0
aI-40
aI-30
aI260
aI-210
aI-120
aI-70
aI-40
aI-210
aI-40
aI-150
aI-40
aI-130
aI-40
aI-30
aI0
aI-190
aI-40
aI-110
aI-200
aI-30
aI-40
aI270
aI240
aI-130
aI-40
aI210
aI-40
aI-50
aI-220
aI-190
aI-40
aI270
aI-40
aI-30
aI-40
aI-50
aI-40
aI-170
aI-40
aI-70
aI-60
aI-250
aI-40
aI-30
aI-60
aI-30
aI-40
aI0
aI0
aI-210
aI0
aI-250
aI-120
aI-50
aI-100
aI-50
aI-40
aI250
aI-40
aI-50
aI-140
aI-110
aI-60
aI-250
aI-40
aI-30
aI-60
aI-50
aI260
aI0
aI-20
aI-30
aI-40
aI-210
aI-120
aI-30
aI-40
aI-70
aI-40
aI-50
aI-40
aI-30
aI240
aI-210
aI200
aI-210
aI-40
aI-110
aI-40
aI-50
aI-40
aI-50
aI-40
aI0
aI-40
aI-90
aI180
aI-50
aI-40
aI-70
aI-40
aI210
aI0
aI230
aI240
aI-190
aI-160
aI-130
aI-40
aI-250
aI-40
aI-110
aI0
aI0
aI-40
aI-110
aI160
aI0
aI-120
aI-150
aI-40
aI0
aI-40
aI-70
aI-40
aI-50
aI-40
aI-50
aI260
aI-210
aI260
aI-110
aI-60
aI-30
aI-200
aI0
aI-40
aI-210
aI280
aI-190
aI240
aI-50
aI-40
aI0
aI0
aI0
aI-200
aI-130
aI-40
aI-150
aI-40
aI-190
aI-160
aI-50
aI-40
aI-30
aI260
aI-210
aI-40
aI-90
aI-40
aI-90
aI-40
aI-110
aI-120
aI-30
aI-40
aI-70
aI160
aI-30
aI-80
aI-50
aI-60
aI-30
aI-40
aI-50
aI-40
aI-150
aI-40
aI250
aI0
aI-50
aI-160
aI-190
aI-180
aI0
aI-40
aI-50
aI240
aI-50
aI-200
aI-90
aI-160
aI-130
aI240
aI-210
aI-40
aI-50
aI-40
aI230
aI-40
aI-190
aI-200
aI-110
aI-40
aI-130
aI-40
aI-50
aI-40
aI-170
aI-40
aI-210
aI-40
aI210
aI-40
aI210
aI-60
aI-130
aI-40
aI-130
aI-40
aI250
aI-120
aI-50
aI-40
aI-130
aI-40
aI-70
aI-200
aI-130
aI-40
aI-30
aI240
aI-50
aI-40
aI-10
aI-40
aI-70
aI-40
aI-130
aI0
aI-90
aI-40
aI-90
aI-40
aI-210
aI-40
aI-50
aI-140
aI0
aI0
aI-190
aI-40
aI-50
aI-200
aI-90
aI-60
aI230
aI-40
aI230
aI-180
aI-30
aI-40
aI190
aI-40
aI-110
aI-40
aI0
aI-40
aI250
aI-40
aI-30
aI-60
aI0
aI-40
aI0
aI-40
aI-30
aI240
aI-90
aI-40
aI230
aI-60
aI-50
aI240
aI-50
aI-40
aI-90
aI-40
aI-30
aI-60
aI-110
aI-40
aI-70
aI0
aI-50
aI-40
aI230
aI-40
aI0
aI-60
aI-30
aI-60
aI-30
aI-180
aI-90
aI0
aI0
aI0
aI-110
aI-40
aI-50
aI180
aI-50
aI-40
aI-210
aI240
aI-30
aI200
aI-50
aI180
aI-30
aI-120
aI-210
aI-60
aI-190
aI-60
aI-10
aI-120
aI-110
aI-200
aI-30
aI-120
aI-170
aI-40
aI-250
aI-60
aI210
aI-60
aI-110
aI-60
aI-30
aI-40
aI-50
aI-60
aI-110
aI240
aI-210
aI0
aI270
aI-60
aI-130
aI-180
aI-150
aI220
aI0
aI-140
aI-50
aI-40
aI230
aI-40
aI-130
aI200
aI0
aI-60
aI-210
aI-120
aI-50
aI-100
aI-230
aI0
aI-30
aI240
aI-210
aI-60
aI-250
aI0
aI-30
aI-40
aI270
aI-40
aI-110
aI-40
aI-30
aI-40
aI-70
aI-40
aI-10
aI-220
aI250
aI260
aI250
aI-40
aI-50
aI-60
aI0
aI-60
aI-50
aI0
aI-210
aI-40
aI-30
aI-40
aI-50
aI0
aI-50
aI-40
aI250
aI-40
aI-30
aI240
aI-30
aI-40
aI-50
aI260
aI-130
aI-60
aI-50
aI-40
aI-210
aI-40
aI-30
aI-60
aI230
aI-40
aI230
aI0
aI-30
aI-40
aI-50
aI-60
aI-190
aI-40
aI-50
aI-220
aI-50
aI-40
aI230
aI-40
aI290
aI-40
aI-210
aI-40
aI-30
aI-40
aI0
aI-120
aI-50
aI-40
aI190
aI-120
aI0
aI-60
aI-130
aI-40
aI-50
aI-120
aI-50
aI280
aI290
aI-160
aI0
aI-60
aI0
aI-40
aI-90
aI260
aI-70
aI-40
aI230
aI-40
aI-130
aI-200
aI-50
aI-40
aI-250
aI-40
aI0
aI260
aI230
aI-40
aI-90
aI-180
aI-30
aI-40
aI-30
aI-40
aI-50
aI-40
aI250
aI-120
aI-210
aI-40
aI-50
aI-40
aI-70
aI160
aI-70
aI-220
aI250
aI-40
aI-210
aI-40
aI-70
aI-40
aI-30
aI-40
aI-210
aI-40
aI250
aI-40
aI-50
aI-40
aI-130
aI-60
aI-150
aI-200
aI-190
aI-120
aI270
aI-40
aI-210
aI-40
aI0
aI0
aI-50
aI-120
aI-50
aI-200
aI-190
aI-220
aI-110
aI-120
aI-30
aI0
aI-190
aI-40
aI-190
aI200
aI0
aI-40
aI230
aI160
aI-50
aI-40
aI230
aI260
aI-250
aI0
aI-50
aI-40
aI-210
aI-40
aI-70
aI-40
aI-210
aI-240
aI-50
aI240
aI-30
aI-40
aI-150
aI-40
aI-50
aI0
aI-50
aI-40
aI-110
aI-40
aI-150
aI-40
aI-110
aI-40
aI-50
aI240
aI0
aI-40
aI-130
aI260
aI-30
aI-60
aI-90
aI-40
aI-210
aI-40
aI-110
aI-40
aI-150
aI-200
aI270
aI-40
aI-50
aI-60
aI230
aI0
aI-110
aI-60
aI-150
aI-60
aI290
aI-40
aI-230
aI-40
aI-150
aI-40
aI230
aI-40
aI-50
aI-160
aI210
aI-40
aI-50
aI-40
aI-210
aI-40
aI-30
aI-40
aI-30
aI-40
aI-10
aI-40
aI-90
aI-40
aI-50
aI-40
aI-190
aI-40
aI-210
aI240
aI250
aI-40
aI0
aI-120
aI-150
aI-40
aI-30
aI-60
aI-50
aI-40
aI0
aI-40
aI-30
aI-40
aI-190
aI0
aI-90
aI-40
aI-210
aI-40
aI-130
aI-40
aI-50
aI-40
aI-50
aI-60
aI-10
aI240
aI-50
aI220
aI-50
aI-60
aI-50
aI-40
aI-170
aI0
aI-110
aI-60
aI250
aI260
aI-90
aI200
aI-30
aI-40
aI-150
aI-40
aI-150
aI-40
aI-190
aI-40
aI-110
aI-60
aI-50
aI-40
aI230
aI200
aI-50
aI0
aI-50
aI-40
aI-30
aI-40
aI-190
aI-60
aI0
aI-40
aI230
aI-40
aI-210
aI200
aI-70
aI-40
aI-50
aI-60
aI-50
aI-100
aI-30
aI0
aI-40
aI-150
aI-60
aI230
aI-160
aI-50
aI-120
aI-170
aI-120
aI-190
aI0
aI-50
aI-60
aI-30
aI-40
aI-190
aI-60
aI250
aI-40
aI-210
aI-60
aI-70
aI-40
aI-130
aI-120
aI-50
aI180
aI-190
aI-60
aI-50
aI-60
aI0
aI-60
aI-210
aI-40
aI-30
aI-40
aI-110
aI-60
aI210
aI240
aI250
aI-60
aI-130
aI180
aI-50
aI-60
aI-30
aI-40
aI-50
aI-40
aI0
aI-40
aI-110
aI-40
aI-50
aI-60
aI-210
aI-40
aI-30
aI-40
aI270
aI200
aI-210
aI0
aI-50
aI-40
aI-170
aI-40
aI250
aI-120
aI-30
aI-40
aI-90
aI0
aI210
aI0
aI-50
aI-120
aI0
aI-40
aI-210
aI-40
aI210
aI-40
aI230
aI-40
aI-50
aI-200
aI-50
aI-40
aI-50
aI-40
aI-70
aI-60
aI0
aI-40
aI-70
aI-60
aI-50
aI-60
aI-50
aI-40
aI-50
aI-40
aI-230
aI240
aI-50
aI-40
aI-30
aI-40
aI0
aI-40
aI-210
aI0
aI-250
aI-60
aI210
aI-40
aI-50
aI-120
aI-50
aI0
aI-50
aI-60
aI270
aI-60
aI-70
aI260
aI0
aI-60
aI-150
aI-200
aI-190
aI-60
aI270
aI-120
aI-10
aI-40
aI270
aI-200
aI-110
aI-40
aI-110
aI-140
aI-90
aI-40
aI-210
aI-40
aI-50
aI200
aI-150
aI200
aI0
aI-40
aI-50
aI-60
aI-210
aI-40
aI-30
aI-40
aI-50
aI-40
aI-70
aI-40
aI-50
aI-40
aI-50
aI-40
aI-50
aI-60
aI270
aI-60
aI-150
aI-40
aI210
aI-200
aI-150
aI0
aI270
aI-200
aI-50
aI-160
aI-90
aI-180
aI-210
aI240
aI-50
aI-40
aI-70
aI240
aI210
aI0
aI-150
aI-40
aI-210
aI-40
aI-50
aI-160
aI0
aI-60
aI-70
aI-60
aI-50
aI240
aI-110
aI0
aI-110
aI-40
aI-110
aI-60
aI-30
aI260
aI-30
aI-40
aI-50
aI200
aI0
aI-120
aI210
aI-40
aI-70
aI-40
aI-70
aI-40
aI-90
aI-40
aI230
aI260
aI-50
aI240
aI-50
aI-40
aI0
aI-40
aI-50
aI260
aI-190
aI-60
aI-30
aI0
aI-150
aI-40
aI-110
aI200
aI-230
aI-40
aI-210
aI260
aI-70
aI-40
aI-230
aI-60
aI-210
aI-40
aI-170
aI-40
aI-110
aI-60
aI230
aI-40
aI-90
aI-40
aI-90
aI-40
aI-70
aI-160
aI-50
aI-40
aI-90
aI-200
aI-30
aI-40
aI-190
aI260
aI250
aI-40
aI-190
aI-60
aI-110
aI-60
aI250
aI-40
aI-30
aI-120
aI-30
aI-60
aI-90
aI-40
aI-210
aI-60
aI0
aI-40
aI250
aI240
aI-90
aI-40
aI-150
aI-40
aI-130
aI-40
aI-230
aI-40
aI-50
aI-40
aI-150
aI220
aI-210
aI-40
aI-30
aI-60
aI-50
aI-40
aI250
aI-40
aI0
aI200
aI-30
aI0
aI0
aI-40
aI210
aI-40
aI-150
aI-60
aI230
aI0
aI-50
aI-40
aI-50
aI-200
aI-50
aI-100
aI-30
aI-200
aI-50
aI-40
aI-150
aI-200
aI-50
aI-40
aI0
aI-40
aI-110
aI-40
aI-50
aI-40
aI270
aI-40
aI-50
aI-40
aI-210
aI-40
aI-30
aI-40
aI-70
aI-40
aI-90
aI-40
aI-30
aI-60
aI-210
aI-40
aI-150
aI-40
aI-210
aI-60
aI170
aI-40
aI-130
aI-40
aI0
aI-40
aI-210
aI240
aI-130
aI-40
aI-50
aI-40
aI-50
aI-40
aI-190
aI-40
aI-50
aI-40
aI-110
aI240
aI-210
aI-40
aI-90
aI-40
aI-110
aI-40
aI-230
aI-40
aI-50
aI0
aI0
aI-60
aI-70
aI-40
aI270
aI-40
aI0
aI-40
aI-110
aI-40
aI-10
aI-40
aI-50
aI-60
aI-230
aI-60
aI-170
aI-40
aI-130
aI-200
aI-110
aI-120
aI-110
aI-40
aI-230
aI-40
aI0
aI-40
aI-150
aI-40
aI-10
aI-40
aI-50
aI-60
aI-50
aI-40
aI-210
aI-60
aI-150
aI200
aI-150
aI-40
aI-150
aI-40
aI-30
aI-60
aI-30
aI-60
aI-90
aI-40
aI-150
aI-60
aI-150
aI240
aI-90
aI-40
aI0
aI240
aI-30
aI-40
aI-50
aI-40
aI250
aI-40
aI-90
aI-40
aI-50
aI260
aI-90
aI200
aI-90
aI-40
aI-50
aI200
aI-30
aI-40
aI-50
aI0
aI-50
aI260
aI-30
aI0
aI210
aI-60
aI250
aI240
aI210
aI-40
aI-210
aI-60
aI-30
aI-40
aI210
aI0
aI-250
aI-180
aI-210
aI-40
aI-90
aI-40
aI-130
aI0
aI250
aI-40
aI-130
aI-200
aI0
aI-40
aI-190
aI-40
aI-30
aI-40
aI-90
aI-40
aI210
aI-40
aI-50
aI-40
aI-50
aI240
aI-150
aI-180
aI-150
aI260
aI-150
aI-60
aI-110
aI-40
aI-50
aI-40
aI-70
aI-40
aI-50
aI-60
aI-70
aI-200
aI-110
aI-40
aI-50
aI-100
aI-90
aI-60
aI0
aI-40
aI-190
aI240
aI-150
aI-180
aI-50
aI-40
aI-150
aI-40
aI0
aI0
aI-50
aI-40
aI-90
aI260
aI-170
aI-60
aI0
aI-40
aI-90
aI-40
aI-170
aI-40
aI-50
aI-40
aI-210
aI-40
aI-150
aI-40
aI0
aI-40
aI0
aI-120
aI-130
aI260
aI-50
aI-200
aI0
aI-40
aI0
aI-40
aI-30
aI-120
aI0
aI0
aI210
aI-40
aI-170
aI-100
aI-70
aI-40
aI-190
aI240
aI250
aI-40
aI-130
aI0
aI-50
aI-40
aI-50
aI-60
aI-50
aI-60
aI0
aI240
aI-30
aI260
aI230
aI-40
aI210
aI-160
aI-50
aI-60
aI-30
aI-60
aI0
aI260
aI-50
aI-60
aI-70
aI0
aI-30
aI-40
aI-110
aI-40
aI-210
aI-40
aI-130
aI240
aI-30
aI-60
aI-110
aI-40
aI-90
aI240
aI-150
aI240
aI-150
aI-60
aI210
aI-40
aI-150
aI200
aI-50
aI-60
aI-130
aI0
aI-110
aI-200
aI-230
aI-40
aI230
aI-60
aI-50
aI0
aI230
aI-40
aI-50
aI-40
aI-110
aI-40
aI0
aI0
aI-30
aI-40
aI-130
aI-40
aI-50
aI-40
aI-50
aI-40
aI-230
aI-60
aI270
aI-40
aI-30
aI-40
aI-30
aI0
aI-210
aI-40
aI-30
aI-180
aI-30
aI-40
aI-150
aI-40
aI-50
aI-220
aI-30
aI240
aI-10
aI-120
aI-90
aI-40
aI0
aI0
aI-250
aI-40
aI190
aI260
aI-50
aI-40
aI-90
aI-40
aI-50
aI-40
aI250
aI-40
aI-150
aI260
aI230
aI-40
aI-50
aI-60
aI-30
aI-160
aI-190
aI0
aI-50
aI-120
aI0
aI200
aI-90
aI200
aI-210
aI-160
aI-90
aI-40
aI-50
aI200
aI-230
aI-60
aI0
aI-60
aI-30
aI-60
aI-130
aI-40
aI210
aI-40
aI-50
aI-40
aI-150
aI-40
aI-130
aI-120
aI-90
aI-40
aI-130
aI-40
aI-30
aI-40
aI-130
aI-60
aI250
aI-40
aI-130
aI-40
aI-50
aI-40
aI230
aI-40
aI-70
aI-40
aI-50
aI-160
aI-150
aI-60
aI-50
aI-40
aI190
aI0
aI-30
aI-200
aI-190
aI-40
aI-50
aI-60
aI-130
aI-40
aI-50
aI-60
aI190
aI0
aI250
aI260
aI-50
aI240
aI-130
aI-60
aI-150
aI-40
aI250
aI-40
aI-170
aI-40
aI-30
aI-40
aI-50
aI-40
aI230
aI-200
aI-210
aI240
aI0
aI260
aI-150
aI-60
aI0
aI260
aI-90
aI260
aI-50
aI-40
aI-30
aI200
aI270
aI-200
aI-190
aI-60
aI230
aI0
aI-90
aI240
aI-110
aI-120
aI-50
aI-40
aI-30
aI-40
aI-50
aI240
aI-50
aI-40
aI-50
aI-40
aI-50
aI-40
aI-70
aI-40
aI-110
aI0
aI-30
aI240
aI-110
aI-40
aI-150
aI-60
aI-30
aI-80
aI-50
aI-60
aI-150
aI0
aI290
aI240
aI-130
aI0
aI-50
aI-40
aI-50
aI-60
aI-90
aI-200
aI-70
aI-40
aI-50
aI-20
aI-130
aI-60
aI-150
aI0
aI0
aI-40
aI-150
aI-40
aI230
aI-40
aI290
aI-200
aI-110
aI-40
aI-150
aI-40
aI190
aI0
aI250
aI-100
aI-210
aI-220
aI-150
aI260
aI-190
aI-40
aI230
aI-40
aI-50
aI-180
aI-170
aI0
aI230
aI-40
aI-50
aI-40
aI-10
aI0
aI0
aI-20
aI-130
aI-40
aI-70
aI220
aI-30
aI0
aI-50
aI-40
aI-210
aI-40
aI190
aI-40
aI-170
aI-200
aI-150
aI-120
aI-90
aI-40
aI230
aI-40
aI-190
aI260
aI0
aI-120
aI-70
aI-40
aI-210
aI-40
aI-30
aI-60
aI250
aI240
aI-70
aI-60
aI-130
aI-40
aI-90
aI0
aI-50
aI-60
aI-190
aI-40
aI-210
aI-40
aI-150
aI-60
aI250
aI-40
aI-50
aI-40
aI-50
aI-180
aI-50
aI260
aI290
aI-40
aI-90
aI-100
aI-230
aI0
aI230
aI-40
aI-130
aI-40
aI-210
aI-60
aI0
aI-40
aI-130
aI-40
aI-130
aI-40
aI-170
aI-60
aI-110
aI260
aI-50
aI-40
aI-30
aI-40
aI-130
aI0
aI-170
aI-40
aI-50
aI240
aI-30
aI-40
aI-170
aI-60
aI-110
aI-60
aI-150
aI-40
aI-190
aI-60
aI210
aI-40
aI-190
aI0
aI-30
aI-160
aI-50
aI-180
aI210
aI-40
aI-150
aI-40
aI190
aI0
aI-30
aI260
aI-230
aI-180
aI-50
aI-40
aI-190
aI-40
aI-150
aI240
aI-50
aI-40
aI-70
aI-60
aI-30
aI-120
aI-50
aI240
aI-70
aI-40
aI250
aI-220
aI-50
aI-200
aI0
aI0
aI0
aI-40
aI-90
aI-40
aI-130
aI-60
aI0
aI-160
aI-150
aI-60
aI0
aI260
aI0
aI-180
aI250
aI-40
aI-150
aI-60
aI-50
aI-40
aI-30
aI-40
aI-50
aI-40
aI-110
aI-40
aI-30
aI260
aI-30
aI-200
aI-70
aI-40
aI-30
aI240
aI-250
aI200
aI-190
aI-40
aI-210
aI-40
aI-110
aI-40
aI0
aI-40
aI-230
aI-60
aI210
aI-40
aI-30
aI-60
aI290
aI-40
aI-150
aI-160
aI0
aI-40
aI-110
aI-40
aI-30
aI-180
aI-150
aI-40
aI0
aI-60
aI-70
aI240
aI-30
aI-40
aI0
aI260
aI0
aI-60
aI-70
aI-40
aI230
aI-40
aI-150
aI-40
aI230
aI-100
aI-50
aI20
aI-30
aI-60
aI-170
aI-40
aI-210
aI-60
aI230
aI-120
aI-250
aI260
aI-50
aI260
aI0
aI-40
aI-130
aI-40
aI-190
aI-40
aI-70
aI-60
aI-30
aI-60
aI0
aI0
aI-190
aI-200
aI-150
aI-60
aI-190
aI-40
aI-130
aI240
aI-50
aI260
aI-30
aI240
aI250
aI-40
aI-150
aI-40
aI-50
aI-40
aI-30
aI-160
aI230
aI-120
aI-70
aI-60
aI-70
aI-40
aI-50
aI-40
aI-70
aI-200
aI230
aI-40
aI-150
aI-200
aI230
aI-40
aI-30
aI-60
aI-50
aI-120
aI-50
aI-200
aI-150
aI-220
aI0
aI-120
aI-190
aI200
aI250
aI-40
aI-10
aI-40
aI-50
aI-120
aI-10
aI-40
aI-50
aI-60
aI-50
aI-40
aI-210
aI0
aI-190
aI240
aI-150
aI240
aI-230
aI-60
aI-230
aI0
aI-50
aI-40
aI0
aI-40
aI-50
aI-180
aI270
aI260
aI-150
aI-40
aI-50
aI-40
aI-70
aI0
aI-210
aI-40
aI270
aI-40
aI-30
aI-60
aI-210
aI-40
aI-50
aI-60
aI-150
aI-40
aI-110
aI-200
aI-50
aI240
aI-230
aI260
aI-150
aI-200
aI-30
aI-40
aI-70
aI-40
aI-110
aI0
aI210
aI-40
aI210
aI-40
aI0
aI-40
aI-50
aI-40
aI-50
aI-60
aI-130
aI200
aI-90
aI-40
aI-30
aI-40
aI-50
aI-40
aI-170
aI-160
aI-30
aI-200
aI-50
aI-40
aI-150
aI240
aI-50
aI-40
aI-50
aI240
aI-50
aI0
aI-110
aI0
aI-190
aI-40
aI-170
aI0
aI-130
aI-60
aI-210
aI-40
aI-30
aI-40
aI-50
aI260
aI-110
aI-40
aI230
aI240
aI-10
aI-40
aI-130
aI0
aI-70
aI-180
aI-90
aI240
aI-50
aI0
aI-50
aI-40
aI-150
aI-40
aI-50
aI-40
aI-170
aI-40
aI0
aI-40
aI-30
aI-40
aI-50
aI-40
aI-130
aI-40
aI210
aI240
aI0
aI-40
aI-90
aI-160
aI-110
aI-60
aI-130
aI0
aI210
aI-40
aI-50
aI-120
aI-50
aI-40
aI-130
aI-40
aI-150
aI-120
aI-30
aI-40
aI-210
aI-40
aI-70
aI-40
aI-50
aI-40
aI-150
aI130
aI-50
aI-80
aI70
aI-40
aI70
aI-80
aI-10
aI240
aI-170
aI0
aI-150
aI-40
aI250
aI-60
aI-190
aI-40
aI-210
aI-40
aI-50
aI-40
aI-110
aI-40
aI-50
aI200
aI-70
aI-40
aI-70
aI-40
aI-50
aI-40
aI-30
aI0
aI-50
aI240
aI0
aI-120
aI-30
aI-40
aI-190
aI-40
aI290
aI-40
aI-190
aI-180
aI-210
aI-60
aI-70
aI-40
aI-170
aI-40
aI-30
aI0
aI-30
aI-40
aI-90
aI-40
aI-30
aI-40
aI-110
aI-40
aI0
aI-40
aI-110
aI-40
aI-190
aI-20
aI-70
aI-60
aI-50
aI0
aI-50
aI240
aI-50
aI240
aI-210
aI-40
aI-130
aI-220
aI-50
aI200
aI0
aI-180
aI-90
aI240
aI-190
aI-40
aI-130
aI-40
aI-50
aI200
aI270
aI-60
aI-130
aI-60
aI230
aI200
aI-70
aI260
aI-190
aI-40
aI0
aI-40
aI-210
aI-40
aI230
aI-40
aI-30
aI0
aI-70
aI-40
aI-190
aI-40
aI-50
aI260
aI-190
aI200
aI210
aI-160
aI-250
aI-40
aI0
aI240
aI0
aI-40
aI-210
aI-40
aI210
aI-40
aI-50
aI-200
aI-150
aI-40
aI210
aI0
aI-190
aI-100
aI-150
aI-40
aI230
aI-40
aI-30
aI-40
aI-90
aI-60
aI250
aI-40
aI-50
aI-40
aI-130
aI-40
aI-150
aI-40
aI-130
aI-40
aI-30
aI0
aI-230
aI240
aI-30
aI-40
aI-30
aI-40
aI-210
aI-60
aI-50
aI-40
aI290
aI-200
aI0
aI260
aI250
aI-40
aI-70
aI-40
aI230
aI-40
aI250
aI-40
aI-30
aI-40
aI-10
aI-60
aI-130
aI-40
aI0
aI-60
aI-50
aI-40
aI-30
aI-40
aI-90
aI-40
aI-90
aI-40
aI0
aI-60
aI-50
aI-40
aI250
aI-120
aI0
aI-160
aI-50
aI0
aI-50
aI-40
aI-210
aI-40
aI-50
aI-40
aI-70
aI-40
aI-10
aI-40
aI230
aI240
aI250
aI-60
aI-30
aI0
aI-110
aI0
aI-150
aI-40
aI-250
aI240
aI-50
aI-120
aI230
aI-160
aI210
aI-40
aI250
aI-40
aI-30
aI0
aI-90
aI-40
aI-50
aI-120
aI-70
aI-60
aI170
aI260
aI-50
aI-40
aI-130
aI-40
aI-190
aI-40
aI-10
aI0
aI-50
aI-40
aI-150
aI-180
aI210
aI-60
aI250
aI0
aI230
aI200
aI-90
aI240
aI-150
aI240
aI-50
aI-40
aI-90
aI-60
aI0
aI-40
aI-110
aI-40
aI-210
aI-40
aI0
aI-40
aI-150
aI220
aI-70
aI-40
aI0
aI-160
aI-50
aI-40
aI-110
aI-60
aI250
aI240
aI-150
aI-40
aI-230
aI-160
aI-90
aI-40
aI230
aI0
aI230
aI-120
aI-110
aI-40
aI250
aI-40
aI-50
aI240
aI-150
aI-200
aI-70
aI-60
aI-30
aI-40
aI0
aI0
aI-30
aI-40
aI-30
aI-40
aI0
aI260
aI-30
aI-40
aI230
aI-40
aI230
aI-40
aI-150
aI-40
aI-50
aI-60
aI-90
aI240
aI-50
aI-40
aI-130
aI-200
aI-230
aI240
aI-50
aI-40
aI0
aI0
aI0
aI-60
aI-190
aI-120
aI-30
aI260
aI-30
aI-60
aI0
aI-40
aI0
aI260
aI-50
aI-40
aI-30
aI-180
aI230
aI240
aI-30
aI240
aI-150
aI0
aI-110
aI-40
aI-30
aI-40
aI-110
aI-200
aI-210
aI-40
aI-30
aI-40
aI-30
aI240
aI250
aI-40
aI-110
aI-40
aI-150
aI-200
aI210
aI-40
aI0
aI-40
aI-110
aI240
aI-130
aI-160
aI270
aI-40
aI0
aI0
aI-110
aI-40
aI-250
aI200
aI-110
aI-60
aI-190
aI-40
aI-50
aI-60
aI210
aI200
aI-110
a.